BL51 BANKED LINKER/LOCATER V6.22.2.0                                                    07/02/2021  21:25:49  PAGE 1


BL51 BANKED LINKER/LOCATER V6.22.2.0, INVOKED BY:
D:\APPDATA\KEIL\C51\BIN\BL51.EXE .\Out_File\common.obj, .\Out_File\board.obj, .\Out_File\zf_iic.obj, .\Out_File\zf_uart.
>> obj, .\Out_File\zf_adc.obj, .\Out_File\zf_tim.obj, .\Out_File\zf_pwm.obj, .\Out_File\zf_pca_pit.obj, .\Out_File\zf_ex
>> ti.obj, .\Out_File\zf_pca_delay.obj, .\Out_File\zf_gpio.obj, .\Out_File\zf_eeprom.obj, .\Out_File\SEEKFREE_FONT.obj, 
>> .\Out_File\SEEKFREE_IIC.obj, .\Out_File\SEEKFREE_MPU6050.obj, .\Out_File\isr.obj, .\Out_File\main.obj, .\Out_File\use
>> r_menu.obj, .\Out_File\user_adc.obj, .\Out_File\user_pid.obj, .\Out_File\user_button.obj, .\Out_File\user_eeprom.obj,
>>  .\Out_File\user_lib_iic.obj TO .\Out_File\Mini_T12_Demo PRINT (.\Out_File\Mini_T12_Demo.m51) RAMSIZE (256) DISABLEWA
>> RNING (16)


MEMORY MODEL: LARGE WITH FLOATING POINT ARITHMETIC


INPUT MODULES INCLUDED:
  .\Out_File\common.obj (COMMON)
  .\Out_File\board.obj (BOARD)
  .\Out_File\zf_iic.obj (ZF_IIC)
  .\Out_File\zf_uart.obj (ZF_UART)
  .\Out_File\zf_adc.obj (ZF_ADC)
  .\Out_File\zf_tim.obj (ZF_TIM)
  .\Out_File\zf_pwm.obj (ZF_PWM)
  .\Out_File\zf_pca_pit.obj (ZF_PCA_PIT)
  .\Out_File\zf_exti.obj (ZF_EXTI)
  .\Out_File\zf_pca_delay.obj (ZF_PCA_DELAY)
  .\Out_File\zf_gpio.obj (ZF_GPIO)
  .\Out_File\zf_eeprom.obj (ZF_EEPROM)
  .\Out_File\SEEKFREE_FONT.obj (SEEKFREE_FONT)
  .\Out_File\SEEKFREE_IIC.obj (SEEKFREE_IIC)
  .\Out_File\SEEKFREE_MPU6050.obj (SEEKFREE_MPU6050)
  .\Out_File\isr.obj (ISR)
  .\Out_File\main.obj (MAIN)
  .\Out_File\user_menu.obj (USER_MENU)
  .\Out_File\user_adc.obj (USER_ADC)
  .\Out_File\user_pid.obj (USER_PID)
  .\Out_File\user_button.obj (USER_BUTTON)
  .\Out_File\user_eeprom.obj (USER_EEPROM)
  .\Out_File\user_lib_iic.obj (USER_LIB_IIC)
  D:\APPDATA\KEIL\C51\LIB\C51FPL.LIB (?C?FPADD)
  D:\APPDATA\KEIL\C51\LIB\C51FPL.LIB (?C?FPMUL)
  D:\APPDATA\KEIL\C51\LIB\C51FPL.LIB (?C?FPDIV)
  D:\APPDATA\KEIL\C51\LIB\C51FPL.LIB (?C?FPCMP)
  D:\APPDATA\KEIL\C51\LIB\C51FPL.LIB (?C?FCAST)
  D:\APPDATA\KEIL\C51\LIB\C51FPL.LIB (?C?CASTF)
  D:\APPDATA\KEIL\C51\LIB\C51FPL.LIB (PRINTF)
  D:\APPDATA\KEIL\C51\LIB\C51FPL.LIB (?C?FPGETOPN)
  D:\APPDATA\KEIL\C51\LIB\C51FPL.LIB (?C?FPROUND)
  D:\APPDATA\KEIL\C51\LIB\C51FPL.LIB (?C?FPCONVERT)
  D:\APPDATA\KEIL\C51\LIB\C51FPL.LIB (?C?FTNPWR)
  D:\APPDATA\KEIL\C51\LIB\C51L.LIB (?C_STARTUP)
  D:\APPDATA\KEIL\C51\LIB\C51L.LIB (?C?COPY)
  D:\APPDATA\KEIL\C51\LIB\C51L.LIB (?C?CLDPTR)
  D:\APPDATA\KEIL\C51\LIB\C51L.LIB (?C?CLDOPTR)
  D:\APPDATA\KEIL\C51\LIB\C51L.LIB (?C?CSTPTR)
  D:\APPDATA\KEIL\C51\LIB\C51L.LIB (?C?IMUL)
  D:\APPDATA\KEIL\C51\LIB\C51L.LIB (?C?UIDIV)
  D:\APPDATA\KEIL\C51\LIB\C51L.LIB (?C?SIDIV)
  D:\APPDATA\KEIL\C51\LIB\C51L.LIB (?C?IILDX)
  D:\APPDATA\KEIL\C51\LIB\C51L.LIB (?C?ILDIX)
BL51 BANKED LINKER/LOCATER V6.22.2.0                                                  07/02/2021  21:25:49  PAGE 2


  D:\APPDATA\KEIL\C51\LIB\C51L.LIB (?C?LMUL)
  D:\APPDATA\KEIL\C51\LIB\C51L.LIB (?C?ULDIV)
  D:\APPDATA\KEIL\C51\LIB\C51L.LIB (?C?LNEG)
  D:\APPDATA\KEIL\C51\LIB\C51L.LIB (?C?ULCMP)
  D:\APPDATA\KEIL\C51\LIB\C51L.LIB (?C?ULSHR)
  D:\APPDATA\KEIL\C51\LIB\C51L.LIB (?C?LSTXDATA)
  D:\APPDATA\KEIL\C51\LIB\C51L.LIB (?C?LSTKXDATA)
  D:\APPDATA\KEIL\C51\LIB\C51L.LIB (?C?OFFXADD)
  D:\APPDATA\KEIL\C51\LIB\C51L.LIB (?C?PLDIXDATA)
  D:\APPDATA\KEIL\C51\LIB\C51L.LIB (?C?PSTXDATA)
  D:\APPDATA\KEIL\C51\LIB\C51L.LIB (?C?CCASE)
  D:\APPDATA\KEIL\C51\LIB\C51L.LIB (?C_INIT)


LINK MAP OF MODULE:  .\Out_File\Mini_T12_Demo (COMMON)


            TYPE    BASE      LENGTH    RELOCATION   SEGMENT NAME
            -----------------------------------------------------

            * * * * * * *   D A T A   M E M O R Y   * * * * * * *
            REG     0000H     0008H     ABSOLUTE     "REG BANK 0"
            DATA    0008H     0005H     UNIT         _DATA_GROUP_
                    000DH     0013H                  *** GAP ***
            BIT     0020H.0   0001H.1   UNIT         _BIT_GROUP_
            BIT     0021H.1   0000H.1   UNIT         ?BI?USER_LIB_IIC
                    0021H.2   0000H.6                *** GAP ***
            DATA    0022H     0040H     UNIT         ?DT?USER_MENU
            IDATA   0062H     0001H     UNIT         ?STACK

            * * * * * * *  X D A T A   M E M O R Y  * * * * * * *
            XDATA   0000H     00E9H     UNIT         ?XD?USER_MENU
            XDATA   00E9H     00E3H     UNIT         _XDATA_GROUP_
            XDATA   01CCH     00CDH     UNIT         ?XD?ZF_UART
            XDATA   0299H     0049H     UNIT         ?XD?USER_ADC
            XDATA   02E2H     0025H     UNIT         ?XD?USER_BUTTON
            XDATA   0307H     0021H     UNIT         ?XD?USER_PID
            XDATA   0328H     0010H     UNIT         ?XD?_PWM_FREQ?ZF_PWM
            XDATA   0338H     000EH     UNIT         ?XD?_ROW_OLED_CH16STR?SEEKFREE_MPU6050
            XDATA   0346H     000CH     UNIT         ?XD?ZF_PCA_PIT
            XDATA   0352H     000CH     UNIT         ?XD?_OLED_PRINT?SEEKFREE_MPU6050
            XDATA   035EH     000CH     UNIT         ?XD?_ROW_OLED_PRINT?SEEKFREE_MPU6050
            XDATA   036AH     000BH     UNIT         ?XD?_OLED_DRAWBMP?SEEKFREE_MPU6050
            XDATA   0375H     000BH     UNIT         ?XD?_OLED_CH16STR?SEEKFREE_MPU6050
            XDATA   0380H     0008H     UNIT         ?XD?_DRAW_IMG42X32?SEEKFREE_MPU6050
            XDATA   0388H     0007H     UNIT         ?XD?_IIC_INIT?ZF_IIC
            XDATA   038FH     0007H     UNIT         ?XD?_IIC_READ_REG_BYTES?ZF_IIC
            XDATA   0396H     0007H     UNIT         ?XD?_SIMIIC_READ_REGS?SEEKFREE_IIC
            XDATA   039DH     0006H     UNIT         ?XD?_IIC_READ_REG?ZF_IIC
            XDATA   03A3H     0006H     UNIT         ?XD?_UART_PUTBUFF?ZF_UART
            XDATA   03A9H     0006H     UNIT         ?XD?SEEKFREE_IIC
            XDATA   03AFH     0006H     UNIT         ?XD?_FILL_24X10?SEEKFREE_MPU6050
            XDATA   03B5H     0004H     UNIT         ?XD?BOARD
            XDATA   03B9H     0004H     UNIT         ?XD?_IIC_WRITE_REG?ZF_IIC
            XDATA   03BDH     0004H     UNIT         ?XD?_FILL_24X1?SEEKFREE_MPU6050
            XDATA   03C1H     0003H     UNIT         ?XD?_UART_PUTSTR?ZF_UART
            XDATA   03C4H     0003H     UNIT         ?XD?_PCA_INIT_INTERRUPT_MS?ZF_PCA_PIT
BL51 BANKED LINKER/LOCATER V6.22.2.0                                                  07/02/2021  21:25:49  PAGE 3


            XDATA   03C7H     0003H     UNIT         ?XD?_FILL_PICTURE?SEEKFREE_MPU6050
            XDATA   03CAH     0002H     UNIT         ?XD?WAIT?ZF_IIC
            XDATA   03CCH     0002H     UNIT         ?XD?ZF_PCA_DELAY
            XDATA   03CEH     0002H     UNIT         ?XD?OLED_ON?SEEKFREE_MPU6050
            XDATA   03D0H     0001H     UNIT         ?XD?_SIMIIC_READ_REG?SEEKFREE_IIC
            XDATA   03D1H     0001H     UNIT         ?XD?ISR

            * * * * * * *   C O D E   M E M O R Y   * * * * * * *
            CODE    0000H     0003H     ABSOLUTE     
            CODE    0003H     0003H     ABSOLUTE     
            CODE    0006H     000DH     UNIT         ?PR?_PAGE_ONE_MENU?USER_MENU
            CODE    0013H     0003H     ABSOLUTE     
            CODE    0016H     0004H     UNIT         ?PR?IAP_IDLE?ZF_EEPROM
            CODE    001AH     0001H     UNIT         ?PR?SIMIIC_INIT?SEEKFREE_IIC
            CODE    001BH     0003H     ABSOLUTE     
            CODE    001EH     0003H     UNIT         ?PR?DISABLEGLOBALIRQ?BOARD
            CODE    0021H     0001H     UNIT         ?PR?INT0_ISR?ISR
            CODE    0022H     0001H     UNIT         ?PR?INT1_ISR?ISR
            CODE    0023H     0003H     ABSOLUTE     
            CODE    0026H     0015H     UNIT         ?PR?USER_ADC_INIT?USER_ADC
            CODE    003BH     0003H     ABSOLUTE     
            CODE    003EH     0003H     UNIT         ?PR?ENABLEGLOBALIRQ?BOARD
            CODE    0041H     0001H     UNIT         ?PR?INT2_ISR?ISR
            CODE    0042H     0001H     UNIT         ?PR?INT3_ISR?ISR
            CODE    0043H     0003H     ABSOLUTE     
            CODE    0046H     000CH     UNIT         ?PR?USER_IIC_WAIT?USER_LIB_IIC
            CODE    0052H     0001H     UNIT         ?PR?INT4_ISR?ISR
            CODE    0053H     0003H     ABSOLUTE     
                    0056H     0005H                  *** GAP ***
            CODE    005BH     0003H     ABSOLUTE     
            CODE    005EH     0025H     UNIT         ?PR?_IIC_CHANGE_PIN?ZF_IIC
            CODE    0083H     0003H     ABSOLUTE     
                    0086H     0005H                  *** GAP ***
            CODE    008BH     0003H     ABSOLUTE     
                    008EH     0005H                  *** GAP ***
            CODE    0093H     0003H     ABSOLUTE     
                    0096H     0005H                  *** GAP ***
            CODE    009BH     0003H     ABSOLUTE     
                    009EH     0005H                  *** GAP ***
            CODE    00A3H     0003H     ABSOLUTE     
            CODE    00A6H     001DH     UNIT         ?PR?PCA_DELAY?ZF_PCA_DELAY
            CODE    00C3H     0003H     ABSOLUTE     
            CODE    00C6H     275CH     UNIT         ?CO?SEEKFREE_FONT
            CODE    2822H     097DH     UNIT         ?C?LIB_CODE
            CODE    319FH     0496H     UNIT         ?CO?USER_MENU
            CODE    3635H     0483H     UNIT         ?PR?PRINTF?PRINTF
            CODE    3AB8H     042DH     UNIT         ?PR?KEY_PRESS?USER_MENU
            CODE    3EE5H     03DFH     UNIT         ?PR?_ROW_OLED_CH16STR?SEEKFREE_MPU6050
            CODE    42C4H     03C6H     UNIT         ?PR?SEEKFREE_MPU6050
            CODE    468AH     03ADH     UNIT         ?PR?_ROW_PAGE_TWO?USER_MENU
            CODE    4A37H     0394H     UNIT         ?PR?USER_MENU
            CODE    4DCBH     0318H     UNIT         ?PR?_ADC_IRON_TEMP?USER_ADC
            CODE    50E3H     02EDH     UNIT         ?PR?TM1_ISR?USER_BUTTON
            CODE    53D0H     028CH     UNIT         ?PR?_DRAW_IMG42X32_LIMIT?SEEKFREE_MPU6050
            CODE    565CH     0239H     UNIT         ?C_INITSEG
            CODE    5895H     0221H     UNIT         ?PR?_GPIO_MODE?ZF_GPIO
            CODE    5AB6H     01BBH     UNIT         ?PR?_NEW_ROW_PAGE?USER_MENU
BL51 BANKED LINKER/LOCATER V6.22.2.0                                                  07/02/2021  21:25:49  PAGE 4


            CODE    5C71H     01A6H     UNIT         ?PR?_UART_INIT?ZF_UART
            CODE    5E17H     019AH     UNIT         ?PR?ADC_VIN_GET?USER_ADC
            CODE    5FB1H     016EH     UNIT         ?PR?_DRAW_IMG34X24?SEEKFREE_MPU6050
            CODE    611FH     0159H     UNIT         ?PR?_OLED_CH16STR?SEEKFREE_MPU6050
            CODE    6278H     0158H     UNIT         ?PR?GET_CLK?BOARD
            CODE    63D0H     0157H     UNIT         ?PR?DATA_TRANSMIT?USER_MENU
            CODE    6527H     0154H     UNIT         ?PR?_DRAW_IMG42X32?SEEKFREE_MPU6050
            CODE    667BH     0153H     UNIT         ?PR?_IRON_TEMP_CONTROL?USER_PID
            CODE    67CEH     0145H     UNIT         ?PR?_PWM_INIT?ZF_PWM
            CODE    6913H     012DH     UNIT         ?PR?FUNCTION_EXECUTE?USER_MENU
            CODE    6A40H     0122H     UNIT         ?PR?FUNCTION_INIT?USER_MENU
            CODE    6B62H     0121H     UNIT         ?PR?_ROW_PAGE?USER_MENU
            CODE    6C83H     011AH     UNIT         ?PR?DATA_RESTORE?USER_MENU
            CODE    6D9DH     0114H     UNIT         ?PR?_OLED_SHOWCHAR?SEEKFREE_MPU6050
            CODE    6EB1H     010DH     UNIT         ?PR?_TOP_MENU?USER_MENU
            CODE    6FBEH     010BH     UNIT         ?PR?MAIN?MAIN
            CODE    70C9H     00F8H     UNIT         ?PR?_SHOW_IMG56X8?SEEKFREE_MPU6050
            CODE    71C1H     00F5H     UNIT         ?PR?_SHOW_TEMP?SEEKFREE_MPU6050
            CODE    72B6H     00F1H     UNIT         ?PR?_PWM_FREQ?ZF_PWM
            CODE    73A7H     00EBH     UNIT         ?PR?ZF_PWM
            CODE    7492H     00D8H     UNIT         ?PR?_OLED_CH16_CHAR?SEEKFREE_MPU6050
            CODE    756AH     00C2H     UNIT         ?PR?OLED_INIT?SEEKFREE_MPU6050
            CODE    762CH     00B7H     UNIT         ?PR?SHOW_MENU?USER_MENU
            CODE    76E3H     00A8H     UNIT         ?PR?_OLED_SHOWNUM?SEEKFREE_MPU6050
            CODE    778BH     00A7H     UNIT         ?PR?_IIC_READ_REG_BYTES?ZF_IIC
            CODE    7832H     00A1H     UNIT         ?PR?USER_ADC
            CODE    78D3H     009DH     UNIT         ?PR?_OLED_P8X16STR?SEEKFREE_MPU6050
            CODE    7970H     0097H     UNIT         ?PR?_ROW_OLED_PRINT?SEEKFREE_MPU6050
            CODE    7A07H     0094H     UNIT         ?PR?_FILL_24X10?SEEKFREE_MPU6050
            CODE    7A9BH     008DH     UNIT         ?PR?_PIT_TIMER_MS?ZF_TIM
            CODE    7B28H     008DH     UNIT         ?PR?_OLED_DRAWBMP?SEEKFREE_MPU6050
            CODE    7BB5H     008CH     UNIT         ?C_C51STARTUP
            CODE    7C41H     0087H     UNIT         ?PR?_IIC_READ_REG?ZF_IIC
            CODE    7CC8H     0086H     UNIT         ?PR?_SHOW_IMG16X16?SEEKFREE_MPU6050
            CODE    7D4EH     0082H     UNIT         ?PR?_DRAW_IMG24X24?SEEKFREE_MPU6050
            CODE    7DD0H     0082H     UNIT         ?PR?_DRAW_IMG48X32?SEEKFREE_MPU6050
            CODE    7E52H     007DH     UNIT         ?PR?_PWM_DUTY?ZF_PWM
            CODE    7ECFH     007DH     UNIT         ?PR?_OLED_P16X32STR?SEEKFREE_MPU6050
            CODE    7F4CH     0079H     UNIT         ?PR?_OLED_CH16_STR?SEEKFREE_MPU6050
            CODE    7FC5H     0076H     UNIT         ?PR?_PCA_INIT_INTERRUPT_MS?ZF_PCA_PIT
            CODE    803BH     0076H     UNIT         ?PR?STRONG_TEMP_HANDLE?USER_MENU
            CODE    80B1H     0074H     UNIT         ?PR?_IIC_WRITE_REG?ZF_IIC
            CODE    8125H     0071H     UNIT         ?PR?TM4_ISR?USER_BUTTON
            CODE    8196H     006BH     UNIT         ?PR?_PCA_RELOAD_COUNTER?ZF_PCA_PIT
            CODE    8201H     0066H     UNIT         ?PR?_OLED_PRINT?SEEKFREE_MPU6050
            CODE    8267H     0066H     UNIT         ?PR?PCA_ISR?ISR
            CODE    82CDH     0060H     UNIT         ?PR?_PCA_INIT?ZF_PCA_PIT
            CODE    832DH     005BH     UNIT         ?PR?_SIMIIC_READ_REGS?SEEKFREE_IIC
            CODE    8388H     005BH     UNIT         ?PR?_OLED_SHOWSTRING?SEEKFREE_MPU6050
            CODE    83E3H     0059H     UNIT         ?PR?BOARD_INIT?BOARD
            CODE    843CH     0053H     UNIT         ?PR?UARTISR?ISR
            CODE    848FH     0053H     UNIT         ?PR?ADC_SYS_TEMP_GET?USER_ADC
            CODE    84E2H     0050H     UNIT         ?PR?_FILL_PICTURE?SEEKFREE_MPU6050
            CODE    8532H     004FH     UNIT         ?PR?DATA_INIT?USER_MENU
            CODE    8581H     004EH     UNIT         ?PR?OLED_ON?SEEKFREE_MPU6050
            CODE    85CFH     004CH     UNIT         ?PR?OLED_OFF_HANDLE?USER_MENU
            CODE    861BH     004BH     UNIT         ?PR?_UART_PUTCHAR?ZF_UART
BL51 BANKED LINKER/LOCATER V6.22.2.0                                                  07/02/2021  21:25:49  PAGE 5


            CODE    8666H     0049H     UNIT         ?PR?_ADC_INIT?ZF_ADC
            CODE    86AFH     0049H     UNIT         ?PR?_CTIMER_COUNT_CLEAN?ZF_TIM
            CODE    86F8H     0049H     UNIT         ?PR?OLED_CLEAR?SEEKFREE_MPU6050
            CODE    8741H     0049H     UNIT         ?PR?_ADC_GET_FILTER?USER_ADC
            CODE    878AH     0047H     UNIT         ?PR?_IIC_INIT?ZF_IIC
            CODE    87D1H     0047H     UNIT         ?PR?USER_BUTTON
            CODE    8818H     0046H     UNIT         ?PR?_CTIMER_COUNT_READ?ZF_TIM
            CODE    885EH     0044H     UNIT         ?PR?ZF_PCA_PIT
            CODE    88A2H     0042H     UNIT         ?PR?_CTIMER_COUNT_INIT?ZF_TIM
            CODE    88E4H     0042H     UNIT         ?PR?_OLED_POW?SEEKFREE_MPU6050
            CODE    8926H     0041H     UNIT         ?PR?_FILL_24X1?SEEKFREE_MPU6050
            CODE    8967H     0040H     UNIT         ?PR?PWM_OUT_GET?USER_PID
            CODE    89A7H     003BH     UNIT         ?PR?_SIMIIC_READ_REG?SEEKFREE_IIC
            CODE    89E2H     003BH     UNIT         ?PR?BEEP_HANDLE?USER_MENU
            CODE    8A1DH     003AH     UNIT         ?PR?TM3_ISR?USER_BUTTON
            CODE    8A57H     0039H     UNIT         ?PR?KEY_PRESS_HANDLER?USER_BUTTON
            CODE    8A90H     0037H     UNIT         ?PR?WAIT?ZF_IIC
            CODE    8AC7H     0037H     UNIT         ?PR?_GPIO_PULL_SET?ZF_GPIO
            CODE    8AFEH     0035H     UNIT         ?PR?_READ_CH?SEEKFREE_IIC
            CODE    8B33H     0035H     UNIT         ?PR?USER_PID
            CODE    8B68H     0034H     UNIT         ?PR?_EXIT_INIT?ZF_EXTI
            CODE    8B9CH     0032H     UNIT         ?PR?ZF_GPIO
            CODE    8BCEH     0032H     UNIT         ?PR?_OLED_SET_POS?SEEKFREE_MPU6050
            CODE    8C00H     002FH     UNIT         ?PR?_IAP_WRITE_BYTES?ZF_EEPROM
            CODE    8C2FH     002FH     UNIT         ?PR?OLED_SLEEP_HANDLE?USER_BUTTON
            CODE    8C5EH     002DH     UNIT         ?PR?_IAP_READ_BYTES?ZF_EEPROM
            CODE    8C8BH     002CH     UNIT         ?PR?I2C_ISR?USER_LIB_IIC
            CODE    8CB7H     002BH     UNIT         ?PR?_ADC_ONCE?ZF_ADC
            CODE    8CE2H     002BH     UNIT         ?PR?ALL_PWM_INIT?USER_PID
            CODE    8D0DH     0029H     UNIT         ?PR?PCA_DEALY_INIT?ZF_PCA_DELAY
            CODE    8D36H     0028H     UNIT         ?PR?BOARD
            CODE    8D5EH     0027H     UNIT         ?PR?ZF_UART
            CODE    8D85H     0026H     UNIT         ?PR?_SEND_CH?SEEKFREE_IIC
            CODE    8DABH     0024H     UNIT         ?PR?ZF_EEPROM
            CODE    8DCFH     0022H     UNIT         ?PR?ZF_IIC
            CODE    8DF1H     0022H     UNIT         ?PR?_SHOW_SET_TEMP?SEEKFREE_MPU6050
            CODE    8E13H     0022H     UNIT         ?PR?UART2ISR?ISR
            CODE    8E35H     0022H     UNIT         ?PR?UART3ISR?ISR
            CODE    8E57H     0022H     UNIT         ?PR?UART4ISR?ISR
            CODE    8E79H     0021H     UNIT         ?PR?_UART_PUTBUFF?ZF_UART
            CODE    8E9AH     0021H     UNIT         ?PR?_UART_PUTSTR?ZF_UART
            CODE    8EBBH     0020H     UNIT         ?PR?USER_EEPROM
            CODE    8EDBH     0020H     UNIT         ?PR?USER_IIC_INIT?USER_LIB_IIC
            CODE    8EFBH     001EH     UNIT         ?PR?IAP_SET_TPS?ZF_EEPROM
            CODE    8F19H     001DH     UNIT         ?PR?_USER_IIC_WRITE_REG?USER_LIB_IIC
            CODE    8F36H     001CH     UNIT         ?PR?_SIMIIC_WRITE_REG?SEEKFREE_IIC
            CODE    8F52H     001CH     UNIT         ?PR?_OLED_WR_BYTE?SEEKFREE_MPU6050
            CODE    8F6EH     001CH     UNIT         ?PR?BUTTON_INIT?USER_BUTTON
            CODE    8F8AH     001CH     UNIT         ?PR?ADC_IRON_GET_HANDLE?USER_BUTTON
            CODE    8FA6H     001AH     UNIT         ?PR?_SIMIIC_SENDACK?SEEKFREE_IIC
            CODE    8FC0H     0019H     UNIT         ?PR?_EEPROM_READ?USER_EEPROM
            CODE    8FD9H     0019H     UNIT         ?PR?_EEPROM_WRITE?USER_EEPROM
            CODE    8FF2H     0019H     UNIT         ?PR?_EEPROM_ERASE?USER_EEPROM
            CODE    900BH     0016H     UNIT         ?PR?SIMIIC_DELAY?SEEKFREE_IIC
            CODE    9021H     0016H     UNIT         ?PR?SCCB_WAITACK?SEEKFREE_IIC
            CODE    9037H     0014H     UNIT         ?PR?_PCA_DELAY_MS?ZF_PCA_DELAY
            CODE    904BH     0013H     UNIT         ?PR?_IIC_DELAY_US?ZF_IIC
BL51 BANKED LINKER/LOCATER V6.22.2.0                                                  07/02/2021  21:25:49  PAGE 6


            CODE    905EH     0013H     UNIT         ?PR?USER_IIC_DELAY?USER_LIB_IIC
            CODE    9071H     0012H     UNIT         ?PR?_PCA_GET?ZF_PCA_PIT
            CODE    9083H     0012H     UNIT         ?PR?SEEKFREE_IIC
            CODE    9095H     0011H     UNIT         ?PR?_PUTCHAR?BOARD
            CODE    90A6H     000FH     UNIT         ?PR?RECV_DATA?ZF_IIC
            CODE    90B5H     000FH     UNIT         ?PR?SIMIIC_START?SEEKFREE_IIC
            CODE    90C4H     000FH     UNIT         ?PR?USER_IIC_RECVDATA?USER_LIB_IIC
            CODE    90D3H     000EH     UNIT         ?PR?_SEND_DATA?ZF_IIC
            CODE    90E1H     000EH     UNIT         ?PR?IAP_GET_CMD_STATE?ZF_EEPROM
            CODE    90EFH     000EH     UNIT         ?PR?MAIN
            CODE    90FDH     000EH     UNIT         ?PR?_USER_IIC_SENDDATA?USER_LIB_IIC
            CODE    910BH     000CH     UNIT         ?PR?USER_IIC_RECVACK?USER_LIB_IIC
            CODE    9117H     000BH     UNIT         ?PR?_IAP_ERASE_PAGE?ZF_EEPROM
            CODE    9122H     000BH     UNIT         ?PR?USER_LIB_IIC
            CODE    912DH     000AH     UNIT         ?PR?_PCA_CLEAN?ZF_PCA_PIT
            CODE    9137H     000AH     UNIT         ?PR?SIMIIC_STOP?SEEKFREE_IIC
            CODE    9141H     0009H     UNIT         ?PR?START?ZF_IIC
            CODE    914AH     0009H     UNIT         ?PR?RECV_ACK?ZF_IIC
            CODE    9153H     0009H     UNIT         ?PR?STOP?ZF_IIC
            CODE    915CH     0009H     UNIT         ?PR?_WRITE_IIC_COMMAND?SEEKFREE_MPU6050
            CODE    9165H     0009H     UNIT         ?PR?_WRITE_IIC_DATA?SEEKFREE_MPU6050
            CODE    916EH     0009H     UNIT         ?PR?USER_IIC_START?USER_LIB_IIC
            CODE    9177H     0009H     UNIT         ?PR?USER_IIC_STOP?USER_LIB_IIC
            CODE    9180H     0008H     UNIT         ?PR?SEND_NAK?ZF_IIC
            CODE    9188H     0008H     UNIT         ?PR?USER_IIC_SENDNAK?USER_LIB_IIC
            CODE    9190H     0007H     UNIT         ?PR?SEND_ACK?ZF_IIC
            CODE    9197H     0007H     UNIT         ?CO?MAIN
            CODE    919EH     0007H     UNIT         ?PR?SUER_IIC_SENDACK?USER_LIB_IIC
            CODE    91A5H     0006H     UNIT         ?PR?IAP_INIT?ZF_EEPROM
            CODE    91ABH     0006H     UNIT         ?CO?SEEKFREE_MPU6050



OVERLAY MAP OF MODULE:   .\Out_File\Mini_T12_Demo (COMMON)


SEGMENT                                             BIT_GROUP          DATA_GROUP          XDATA_GROUP
  +--> CALLED SEGMENT                            START    LENGTH     START    LENGTH     START    LENGTH
--------------------------------------------------------------------------------------------------------
?PR?TM1_ISR?USER_BUTTON                          -----    -----      -----    -----      -----    -----
  +--> ?PR?USER_BUTTON

*** NEW ROOT ***************************************************

?PR?TM3_ISR?USER_BUTTON                          -----    -----      -----    -----      -----    -----
  +--> ?PR?USER_BUTTON

*** NEW ROOT ***************************************************

?C_C51STARTUP                                    -----    -----      -----    -----      -----    -----
  +--> ?PR?MAIN?MAIN
  +--> ?C_INITSEG

?PR?MAIN?MAIN                                    -----    -----      -----    -----      -----    -----
  +--> ?PR?DISABLEGLOBALIRQ?BOARD
  +--> ?PR?BOARD_INIT?BOARD
  +--> ?PR?USER_ADC_INIT?USER_ADC
BL51 BANKED LINKER/LOCATER V6.22.2.0                                                  07/02/2021  21:25:49  PAGE 7


  +--> ?PR?BUTTON_INIT?USER_BUTTON
  +--> ?PR?ALL_PWM_INIT?USER_PID
  +--> ?PR?OLED_INIT?SEEKFREE_MPU6050
  +--> ?PR?_PIT_TIMER_MS?ZF_TIM
  +--> ?PR?ENABLEGLOBALIRQ?BOARD
  +--> ?PR?_EEPROM_READ?USER_EEPROM
  +--> ?PR?DATA_RESTORE?USER_MENU
  +--> ?PR?FUNCTION_INIT?USER_MENU
  +--> ?PR?ADC_SYS_TEMP_GET?USER_ADC
  +--> ?PR?ADC_VIN_GET?USER_ADC
  +--> ?PR?MAIN
  +--> ?PR?_TOP_MENU?USER_MENU
  +--> ?PR?SHOW_MENU?USER_MENU
  +--> ?PR?KEY_PRESS?USER_MENU
  +--> ?PR?KEY_PRESS_HANDLER?USER_BUTTON
  +--> ?PR?OLED_SLEEP_HANDLE?USER_BUTTON
  +--> ?PR?ADC_IRON_GET_HANDLE?USER_BUTTON
  +--> ?PR?_ADC_IRON_TEMP?USER_ADC
  +--> ?CO?MAIN
  +--> ?PR?PRINTF?PRINTF
  +--> ?PR?_ADC_GET_FILTER?USER_ADC

?PR?BOARD_INIT?BOARD                             -----    -----      -----    -----      -----    -----
  +--> ?PR?GET_CLK?BOARD
  +--> ?PR?PCA_DEALY_INIT?ZF_PCA_DELAY
  +--> ?PR?_UART_INIT?ZF_UART

?PR?GET_CLK?BOARD                                -----    -----      -----    -----      00E9H    0004H
  +--> ?PR?BOARD

?PR?_UART_INIT?ZF_UART                           -----    -----      -----    -----      00E9H    0008H
  +--> ?PR?ZF_UART

?PR?USER_ADC_INIT?USER_ADC                       -----    -----      -----    -----      -----    -----
  +--> ?PR?_ADC_INIT?ZF_ADC

?PR?BUTTON_INIT?USER_BUTTON                      -----    -----      -----    -----      -----    -----
  +--> ?PR?_GPIO_PULL_SET?ZF_GPIO

?PR?_GPIO_PULL_SET?ZF_GPIO                       -----    -----      -----    -----      -----    -----
  +--> ?PR?ZF_GPIO

?PR?ALL_PWM_INIT?USER_PID                        -----    -----      -----    -----      -----    -----
  +--> ?PR?_PWM_INIT?ZF_PWM

?PR?_PWM_INIT?ZF_PWM                             -----    -----      -----    -----      00E9H    000CH
  +--> ?PR?_GPIO_MODE?ZF_GPIO
  +--> ?PR?ZF_PWM

?PR?_GPIO_MODE?ZF_GPIO                           -----    -----      -----    -----      -----    -----
  +--> ?PR?ZF_GPIO

?PR?OLED_INIT?SEEKFREE_MPU6050                   -----    -----      -----    -----      -----    -----
  +--> ?PR?_OLED_WR_BYTE?SEEKFREE_MPU6050
  +--> ?PR?OLED_CLEAR?SEEKFREE_MPU6050

?PR?_OLED_WR_BYTE?SEEKFREE_MPU6050               -----    -----      -----    -----      0123H    0002H
BL51 BANKED LINKER/LOCATER V6.22.2.0                                                  07/02/2021  21:25:49  PAGE 8


  +--> ?PR?_WRITE_IIC_DATA?SEEKFREE_MPU6050
  +--> ?PR?_WRITE_IIC_COMMAND?SEEKFREE_MPU6050

?PR?_WRITE_IIC_DATA?SEEKFREE_MPU6050             -----    -----      -----    -----      -----    -----
  +--> ?PR?_SIMIIC_WRITE_REG?SEEKFREE_IIC

?PR?_SIMIIC_WRITE_REG?SEEKFREE_IIC               -----    -----      -----    -----      0125H    0001H
  +--> ?PR?SIMIIC_START?SEEKFREE_IIC
  +--> ?PR?_SEND_CH?SEEKFREE_IIC
  +--> ?PR?SIMIIC_STOP?SEEKFREE_IIC

?PR?SIMIIC_START?SEEKFREE_IIC                    -----    -----      -----    -----      -----    -----
  +--> ?PR?SIMIIC_DELAY?SEEKFREE_IIC

?PR?_SEND_CH?SEEKFREE_IIC                        -----    -----      -----    -----      -----    -----
  +--> ?PR?SIMIIC_DELAY?SEEKFREE_IIC
  +--> ?PR?SCCB_WAITACK?SEEKFREE_IIC

?PR?SCCB_WAITACK?SEEKFREE_IIC                    -----    -----      -----    -----      -----    -----
  +--> ?PR?SIMIIC_DELAY?SEEKFREE_IIC

?PR?SIMIIC_STOP?SEEKFREE_IIC                     -----    -----      -----    -----      -----    -----
  +--> ?PR?SIMIIC_DELAY?SEEKFREE_IIC

?PR?_WRITE_IIC_COMMAND?SEEKFREE_MPU6050          -----    -----      -----    -----      -----    -----
  +--> ?PR?_SIMIIC_WRITE_REG?SEEKFREE_IIC

?PR?OLED_CLEAR?SEEKFREE_MPU6050                  -----    -----      -----    -----      00E9H    0002H
  +--> ?PR?SEEKFREE_MPU6050
  +--> ?PR?_OLED_WR_BYTE?SEEKFREE_MPU6050

?PR?SEEKFREE_MPU6050                             -----    -----      -----    -----      -----    -----
  +--> ?CO?SEEKFREE_FONT

?PR?_PIT_TIMER_MS?ZF_TIM                         -----    -----      -----    -----      00E9H    0001H

?PR?_EEPROM_READ?USER_EEPROM                     -----    -----      -----    -----      00E9H    0006H
  +--> ?PR?USER_EEPROM
  +--> ?PR?IAP_INIT?ZF_EEPROM
  +--> ?PR?_IAP_READ_BYTES?ZF_EEPROM
  +--> ?PR?IAP_IDLE?ZF_EEPROM

?PR?IAP_INIT?ZF_EEPROM                           -----    -----      -----    -----      -----    -----
  +--> ?PR?IAP_SET_TPS?ZF_EEPROM

?PR?_IAP_READ_BYTES?ZF_EEPROM                    -----    -----      -----    -----      00EFH    0006H
  +--> ?PR?ZF_EEPROM

?PR?DATA_RESTORE?USER_MENU                       -----    -----      -----    -----      -----    -----
  +--> ?PR?USER_MENU

?PR?USER_MENU                                    -----    -----      -----    -----      -----    -----
  +--> ?CO?USER_MENU
  +--> ?PR?DATA_TRANSMIT?USER_MENU

?PR?FUNCTION_INIT?USER_MENU                      -----    -----      -----    -----      -----    -----
  +--> ?PR?USER_MENU
BL51 BANKED LINKER/LOCATER V6.22.2.0                                                  07/02/2021  21:25:49  PAGE 9


  +--> ?PR?_OLED_WR_BYTE?SEEKFREE_MPU6050
  +--> ?PR?_EEPROM_ERASE?USER_EEPROM
  +--> ?PR?_EEPROM_WRITE?USER_EEPROM
  +--> ?PR?DATA_INIT?USER_MENU

?PR?_EEPROM_ERASE?USER_EEPROM                    -----    -----      -----    -----      00E9H    0002H
  +--> ?PR?IAP_INIT?ZF_EEPROM
  +--> ?PR?_IAP_ERASE_PAGE?ZF_EEPROM
  +--> ?PR?IAP_IDLE?ZF_EEPROM

?PR?_IAP_ERASE_PAGE?ZF_EEPROM                    -----    -----      -----    -----      -----    -----
  +--> ?PR?ZF_EEPROM

?PR?_EEPROM_WRITE?USER_EEPROM                    -----    -----      -----    -----      00E9H    0006H
  +--> ?PR?USER_EEPROM
  +--> ?PR?IAP_INIT?ZF_EEPROM
  +--> ?PR?_IAP_WRITE_BYTES?ZF_EEPROM
  +--> ?PR?IAP_IDLE?ZF_EEPROM

?PR?_IAP_WRITE_BYTES?ZF_EEPROM                   -----    -----      -----    -----      00EFH    0006H
  +--> ?PR?ZF_EEPROM

?PR?DATA_INIT?USER_MENU                          -----    -----      -----    -----      00E9H    0002H
  +--> ?PR?USER_MENU
  +--> ?CO?USER_MENU

?PR?ADC_SYS_TEMP_GET?USER_ADC                    -----    -----      -----    -----      00EFH    0004H
  +--> ?PR?_ADC_ONCE?ZF_ADC
  +--> ?PR?USER_ADC

?PR?ADC_VIN_GET?USER_ADC                         -----    -----      -----    -----      00F4H    00D8H
  +--> ?PR?_ADC_ONCE?ZF_ADC
  +--> ?PR?USER_ADC

?PR?_TOP_MENU?USER_MENU                          -----    -----      -----    -----      00E9H    0007H
  +--> ?PR?PWM_OUT_GET?USER_PID
  +--> ?PR?BEEP_HANDLE?USER_MENU
  +--> ?PR?OLED_OFF_HANDLE?USER_MENU
  +--> ?CO?USER_MENU
  +--> ?PR?USER_MENU
  +--> ?PR?_OLED_SHOWNUM?SEEKFREE_MPU6050
  +--> ?PR?_OLED_SHOWSTRING?SEEKFREE_MPU6050
  +--> ?PR?_SHOW_SET_TEMP?SEEKFREE_MPU6050
  +--> ?PR?_SHOW_TEMP?SEEKFREE_MPU6050
  +--> ?PR?_SHOW_IMG56X8?SEEKFREE_MPU6050
  +--> ?PR?_SHOW_IMG16X16?SEEKFREE_MPU6050

?PR?PWM_OUT_GET?USER_PID                         -----    -----      -----    -----      -----    -----
  +--> ?PR?USER_PID
  +--> ?PR?_IRON_TEMP_CONTROL?USER_PID
  +--> ?PR?_PWM_DUTY?ZF_PWM

?PR?_IRON_TEMP_CONTROL?USER_PID                  -----    -----      -----    -----      00F0H    000CH
  +--> ?PR?USER_PID

?PR?_PWM_DUTY?ZF_PWM                             -----    -----      -----    -----      00F0H    0005H
  +--> ?PR?ZF_PWM
BL51 BANKED LINKER/LOCATER V6.22.2.0                                                  07/02/2021  21:25:49  PAGE 10



?PR?BEEP_HANDLE?USER_MENU                        -----    -----      -----    -----      -----    -----
  +--> ?PR?USER_MENU
  +--> ?PR?_PWM_DUTY?ZF_PWM

?PR?OLED_OFF_HANDLE?USER_MENU                    -----    -----      -----    -----      -----    -----
  +--> ?PR?_OLED_WR_BYTE?SEEKFREE_MPU6050

?PR?_OLED_SHOWNUM?SEEKFREE_MPU6050               -----    -----      -----    -----      0110H    000BH
  +--> ?PR?_OLED_POW?SEEKFREE_MPU6050
  +--> ?PR?SEEKFREE_MPU6050
  +--> ?PR?_OLED_SHOWCHAR?SEEKFREE_MPU6050

?PR?_OLED_POW?SEEKFREE_MPU6050                   -----    -----      -----    -----      011BH    0006H
  +--> ?PR?SEEKFREE_MPU6050

?PR?_OLED_SHOWCHAR?SEEKFREE_MPU6050              -----    -----      -----    -----      011BH    0006H
  +--> ?PR?SEEKFREE_MPU6050
  +--> ?PR?_OLED_WR_BYTE?SEEKFREE_MPU6050
  +--> ?PR?_OLED_SET_POS?SEEKFREE_MPU6050

?PR?_OLED_SET_POS?SEEKFREE_MPU6050               -----    -----      -----    -----      0122H    0001H
  +--> ?PR?_OLED_WR_BYTE?SEEKFREE_MPU6050

?PR?_OLED_SHOWSTRING?SEEKFREE_MPU6050            -----    -----      -----    -----      0110H    0007H
  +--> ?PR?SEEKFREE_MPU6050
  +--> ?PR?_OLED_SHOWCHAR?SEEKFREE_MPU6050

?PR?_SHOW_SET_TEMP?SEEKFREE_MPU6050              -----    -----      -----    -----      -----    -----
  +--> ?PR?_OLED_SHOWNUM?SEEKFREE_MPU6050

?PR?_SHOW_TEMP?SEEKFREE_MPU6050                  -----    -----      -----    -----      00F0H    0004H
  +--> ?PR?SEEKFREE_MPU6050
  +--> ?PR?_OLED_P16X32STR?SEEKFREE_MPU6050
  +--> ?PR?_DRAW_IMG48X32?SEEKFREE_MPU6050
  +--> ?PR?_DRAW_IMG24X24?SEEKFREE_MPU6050
  +--> ?PR?ADC_VIN_GET?USER_ADC

?PR?_OLED_P16X32STR?SEEKFREE_MPU6050             -----    -----      -----    -----      00F4H    0007H
  +--> ?PR?SEEKFREE_MPU6050
  +--> ?PR?_OLED_SET_POS?SEEKFREE_MPU6050
  +--> ?CO?SEEKFREE_FONT
  +--> ?PR?_OLED_WR_BYTE?SEEKFREE_MPU6050

?PR?_DRAW_IMG48X32?SEEKFREE_MPU6050              -----    -----      -----    -----      00F4H    0007H
  +--> ?PR?SEEKFREE_MPU6050
  +--> ?PR?_OLED_SET_POS?SEEKFREE_MPU6050
  +--> ?CO?SEEKFREE_FONT
  +--> ?PR?_OLED_WR_BYTE?SEEKFREE_MPU6050

?PR?_DRAW_IMG24X24?SEEKFREE_MPU6050              -----    -----      -----    -----      00F4H    0007H
  +--> ?PR?SEEKFREE_MPU6050
  +--> ?PR?_OLED_SET_POS?SEEKFREE_MPU6050
  +--> ?CO?SEEKFREE_FONT
  +--> ?PR?_OLED_WR_BYTE?SEEKFREE_MPU6050

?PR?_SHOW_IMG56X8?SEEKFREE_MPU6050               -----    -----      -----    -----      00F0H    0007H
BL51 BANKED LINKER/LOCATER V6.22.2.0                                                  07/02/2021  21:25:49  PAGE 11


  +--> ?PR?SEEKFREE_MPU6050
  +--> ?PR?_OLED_SET_POS?SEEKFREE_MPU6050
  +--> ?CO?SEEKFREE_FONT
  +--> ?PR?_OLED_WR_BYTE?SEEKFREE_MPU6050
  +--> ?PR?_OLED_SHOWNUM?SEEKFREE_MPU6050
  +--> ?CO?SEEKFREE_MPU6050
  +--> ?PR?_OLED_SHOWSTRING?SEEKFREE_MPU6050

?PR?_SHOW_IMG16X16?SEEKFREE_MPU6050              -----    -----      -----    -----      00F0H    0007H
  +--> ?PR?_OLED_SET_POS?SEEKFREE_MPU6050
  +--> ?PR?SEEKFREE_MPU6050
  +--> ?CO?SEEKFREE_FONT
  +--> ?PR?_OLED_WR_BYTE?SEEKFREE_MPU6050

?PR?SHOW_MENU?USER_MENU                          -----    -----      -----    -----      -----    -----
  +--> ?PR?STRONG_TEMP_HANDLE?USER_MENU
  +--> ?PR?_ROW_PAGE?USER_MENU
  +--> ?PR?_NEW_ROW_PAGE?USER_MENU
  +--> ?PR?_PAGE_ONE_MENU?USER_MENU
  +--> ?PR?USER_MENU
  +--> ?CO?USER_MENU
  +--> ?PR?_OLED_SHOWSTRING?SEEKFREE_MPU6050
  +--> ?PR?_OLED_P8X16STR?SEEKFREE_MPU6050
  +--> ?PR?_ROW_PAGE_TWO?USER_MENU

?PR?STRONG_TEMP_HANDLE?USER_MENU                 -----    -----      -----    -----      -----    -----
  +--> ?PR?USER_MENU
  +--> ?PR?_SHOW_IMG16X16?SEEKFREE_MPU6050

?PR?_ROW_PAGE?USER_MENU                          -----    -----      -----    -----      00E9H    0003H
  +--> ?PR?USER_MENU
  +--> ?PR?_DRAW_IMG34X24?SEEKFREE_MPU6050

?PR?_DRAW_IMG34X24?SEEKFREE_MPU6050              -----    -----      -----    -----      00ECH    0008H
  +--> ?PR?SEEKFREE_MPU6050
  +--> ?PR?_OLED_SET_POS?SEEKFREE_MPU6050
  +--> ?PR?_OLED_WR_BYTE?SEEKFREE_MPU6050

?PR?_NEW_ROW_PAGE?USER_MENU                      -----    -----      -----    -----      00E9H    0004H
  +--> ?PR?USER_MENU
  +--> ?PR?_DRAW_IMG42X32_LIMIT?SEEKFREE_MPU...
  +--> ?PR?_PCA_DELAY_MS?ZF_PCA_DELAY

?PR?_DRAW_IMG42X32_LIMIT?SEEKFREE_MPU...         -----    -----      -----    -----      00EDH    000AH
  +--> ?PR?SEEKFREE_MPU6050
  +--> ?PR?_OLED_SET_POS?SEEKFREE_MPU6050
  +--> ?PR?_OLED_WR_BYTE?SEEKFREE_MPU6050

?PR?_PCA_DELAY_MS?ZF_PCA_DELAY                   -----    -----      -----    -----      -----    -----
  +--> ?PR?PCA_DELAY?ZF_PCA_DELAY

?PR?_PAGE_ONE_MENU?USER_MENU                     -----    -----      -----    -----      -----    -----
  +--> ?PR?_OLED_CH16_CHAR?SEEKFREE_MPU6050

?PR?_OLED_CH16_CHAR?SEEKFREE_MPU6050             -----    -----      -----    -----      0110H    000BH
  +--> ?PR?SEEKFREE_MPU6050
  +--> ?CO?SEEKFREE_MPU6050
BL51 BANKED LINKER/LOCATER V6.22.2.0                                                  07/02/2021  21:25:49  PAGE 12


  +--> ?CO?USER_MENU
  +--> ?PR?_OLED_CH16_STR?SEEKFREE_MPU6050

?PR?_OLED_CH16_STR?SEEKFREE_MPU6050              -----    -----      -----    -----      011BH    0007H
  +--> ?PR?SEEKFREE_MPU6050
  +--> ?PR?_OLED_SET_POS?SEEKFREE_MPU6050
  +--> ?PR?_OLED_WR_BYTE?SEEKFREE_MPU6050

?PR?_OLED_P8X16STR?SEEKFREE_MPU6050              -----    -----      -----    -----      00E9H    0008H
  +--> ?PR?SEEKFREE_MPU6050
  +--> ?PR?_OLED_SET_POS?SEEKFREE_MPU6050
  +--> ?PR?_OLED_WR_BYTE?SEEKFREE_MPU6050

?PR?_ROW_PAGE_TWO?USER_MENU                      -----    -----      -----    -----      00E9H    0027H
  +--> ?CO?USER_MENU
  +--> ?PR?USER_MENU
  +--> ?PR?_OLED_CH16_CHAR?SEEKFREE_MPU6050
  +--> ?PR?_OLED_SHOWNUM?SEEKFREE_MPU6050
  +--> ?PR?_OLED_SHOWSTRING?SEEKFREE_MPU6050

?PR?KEY_PRESS?USER_MENU                          -----    -----      -----    -----      -----    -----
  +--> ?PR?USER_MENU
  +--> ?PR?FUNCTION_EXECUTE?USER_MENU
  +--> ?PR?OLED_CLEAR?SEEKFREE_MPU6050
  +--> ?CO?USER_MENU

?PR?FUNCTION_EXECUTE?USER_MENU                   -----    -----      -----    -----      -----    -----
  +--> ?PR?_OLED_WR_BYTE?SEEKFREE_MPU6050
  +--> ?PR?USER_MENU
  +--> ?PR?_EEPROM_ERASE?USER_EEPROM
  +--> ?PR?_EEPROM_WRITE?USER_EEPROM
  +--> ?PR?DATA_INIT?USER_MENU

?PR?OLED_SLEEP_HANDLE?USER_BUTTON                -----    -----      -----    -----      -----    -----
  +--> ?PR?USER_BUTTON
  +--> ?PR?_OLED_WR_BYTE?SEEKFREE_MPU6050

?PR?ADC_IRON_GET_HANDLE?USER_BUTTON              -----    -----      -----    -----      -----    -----
  +--> ?PR?USER_BUTTON
  +--> ?PR?_ADC_ONCE?ZF_ADC

?PR?_ADC_IRON_TEMP?USER_ADC                      -----    -----      -----    -----      00E9H    0006H
  +--> ?PR?USER_ADC
  +--> ?PR?ADC_SYS_TEMP_GET?USER_ADC

?PR?PRINTF?PRINTF                                0020H.0  0001H.1    0008H    0005H      00E9H    0030H
  +--> ?PR?_PUTCHAR?BOARD

?PR?_PUTCHAR?BOARD                               -----    -----      -----    -----      0119H    0001H
  +--> ?PR?_UART_PUTCHAR?ZF_UART

?PR?_ADC_GET_FILTER?USER_ADC                     -----    -----      -----    -----      -----    -----
  +--> ?PR?USER_ADC



SYMBOL TABLE OF MODULE:  .\Out_File\Mini_T12_Demo (COMMON)
BL51 BANKED LINKER/LOCATER V6.22.2.0                                                  07/02/2021  21:25:49  PAGE 13



  VALUE           TYPE          NAME
  ----------------------------------

  -------         MODULE        COMMON
  C:0000H         SYMBOL        _ICE_DUMMY_
  D:0080H         PUBLIC        P0
  D:0090H         PUBLIC        P1
  D:00A0H         PUBLIC        P2
  D:00B0H         PUBLIC        P3
  D:00C0H         PUBLIC        P4
  D:00C8H         PUBLIC        P5
  D:00A8H         PUBLIC        IE
  D:00B8H         PUBLIC        IP
  D:00D8H         PUBLIC        CCON
  D:0098H         PUBLIC        SCON
  D:0088H         PUBLIC        TCON
  D:00D0H         PUBLIC        PSW
  -------         ENDMOD        COMMON

  -------         MODULE        BOARD
  C:0000H         SYMBOL        _ICE_DUMMY_
  D:0093H         PUBLIC        P0M1
  D:0092H         PUBLIC        P1M0
  D:0096H         PUBLIC        P2M0
  D:0091H         PUBLIC        P1M1
  D:0080H         PUBLIC        P0
  D:00B2H         PUBLIC        P3M0
  D:0095H         PUBLIC        P2M1
  D:0090H         PUBLIC        P1
  D:00B4H         PUBLIC        P4M0
  D:00B1H         PUBLIC        P3M1
  D:00A0H         PUBLIC        P2
  D:00CAH         PUBLIC        P5M0
  D:00B3H         PUBLIC        P4M1
  D:00B0H         PUBLIC        P3
  D:00C9H         PUBLIC        P5M1
  D:00C0H         PUBLIC        P4
  D:00C8H         PUBLIC        P5
  B:00A8H.7       PUBLIC        EA
  D:00F9H         PUBLIC        CH
  D:00A2H         PUBLIC        P_SW1
  D:00BAH         PUBLIC        P_SW2
  C:003EH         PUBLIC        EnableGlobalIRQ
  D:00A8H         PUBLIC        IE
  D:00E9H         PUBLIC        CL
  D:00B8H         PUBLIC        IP
  D:00DEH         PUBLIC        ADCCFG
  C:83E3H         PUBLIC        board_init
  D:00D9H         PUBLIC        CMOD
  D:00D8H         PUBLIC        CCON
  D:0098H         PUBLIC        SCON
  D:0089H         PUBLIC        TMOD
  D:0088H         PUBLIC        TCON
  D:00AFH         PUBLIC        IE2
  D:008EH         PUBLIC        AUXR
  D:009FH         PUBLIC        IRTRIM
BL51 BANKED LINKER/LOCATER V6.22.2.0                                                  07/02/2021  21:25:49  PAGE 14


  C:6278H         PUBLIC        get_clk
  D:009AH         PUBLIC        S2CON
  D:00ACH         PUBLIC        S3CON
  D:0084H         PUBLIC        S4CON
  D:009DH         PUBLIC        IRCBAND
  D:00D0H         PUBLIC        PSW
  C:001EH         PUBLIC        DisableGlobalIRQ
  C:9095H         PUBLIC        _putchar
  X:03B5H         PUBLIC        sys_clk
  D:0094H         PUBLIC        P0M0
  C:8D36H         SYMBOL        Com001F
  C:8D36H         SYMBOL        L?0032
  C:8D38H         SYMBOL        L?0033
  C:8D3AH         SYMBOL        L?0034
  C:8D4CH         SYMBOL        L?0035
  -------         PROC          COM001F
  -------         ENDPROC       COM001F
  -------         PROC          GET_CLK
  -------         DO            
  X:00E9H         SYMBOL        temp_count
  -------         ENDDO         
  C:6278H         LINE#         42
  C:6278H         LINE#         43
  C:6278H         LINE#         46
  C:627BH         LINE#         48
  C:627FH         LINE#         49
  C:629FH         LINE#         51
  C:62C3H         LINE#         53
  C:62E7H         LINE#         55
  C:62F4H         LINE#         56
  C:62FDH         LINE#         57
  C:630AH         LINE#         58
  C:6313H         LINE#         59
  C:6320H         LINE#         60
  C:6329H         LINE#         61
  C:6336H         LINE#         62
  C:633FH         LINE#         63
  C:6348H         LINE#         64
  C:6351H         LINE#         65
  C:635AH         LINE#         66
  C:6363H         LINE#         67
  C:636EH         LINE#         68
  C:6377H         LINE#         69
  C:6382H         LINE#         70
  C:638BH         LINE#         71
  C:6396H         LINE#         72
  C:639FH         LINE#         73
  C:63AAH         LINE#         74
  C:63B3H         LINE#         75
  C:63BEH         LINE#         76
  C:63C7H         LINE#         78
  C:63CFH         LINE#         80
  -------         ENDPROC       GET_CLK
  -------         PROC          BOARD_INIT
  C:83E3H         LINE#         89
  C:83E3H         LINE#         90
  C:83E3H         LINE#         94
BL51 BANKED LINKER/LOCATER V6.22.2.0                                                  07/02/2021  21:25:49  PAGE 15


  C:83ECH         LINE#         108
  C:83EFH         LINE#         109
  C:83F1H         LINE#         110
  C:83F3H         LINE#         111
  C:83F5H         LINE#         112
  C:83F7H         LINE#         113
  C:83F9H         LINE#         114
  C:83FBH         LINE#         115
  C:83FDH         LINE#         116
  C:83FFH         LINE#         117
  C:8401H         LINE#         118
  C:8403H         LINE#         119
  C:8405H         LINE#         120
  C:8407H         LINE#         121
  C:8409H         LINE#         122
  C:840BH         LINE#         123
  C:840DH         LINE#         124
  C:840FH         LINE#         125
  C:8411H         LINE#         126
  C:8413H         LINE#         127
  C:8415H         LINE#         128
  C:8417H         LINE#         129
  C:8419H         LINE#         130
  C:841BH         LINE#         131
  C:841DH         LINE#         132
  C:841FH         LINE#         133
  C:8421H         LINE#         134
  C:8424H         LINE#         136
  -------         ENDPROC       BOARD_INIT
  -------         PROC          _PUTCHAR
  X:0119H         SYMBOL        c
  C:9095H         LINE#         142
  C:909AH         LINE#         143
  C:909AH         LINE#         144
  C:90A0H         LINE#         145
  C:90A5H         LINE#         146
  -------         ENDPROC       _PUTCHAR
  -------         PROC          DISABLEGLOBALIRQ
  C:001EH         LINE#         156
  C:001EH         LINE#         157
  C:001EH         LINE#         158
  C:0020H         LINE#         159
  -------         ENDPROC       DISABLEGLOBALIRQ
  -------         PROC          ENABLEGLOBALIRQ
  C:003EH         LINE#         167
  C:003EH         LINE#         168
  C:003EH         LINE#         169
  C:0040H         LINE#         170
  -------         ENDPROC       ENABLEGLOBALIRQ
  -------         ENDMOD        BOARD

  -------         MODULE        ZF_IIC
  C:0000H         SYMBOL        _ICE_DUMMY_
  D:0080H         PUBLIC        P0
  D:0090H         PUBLIC        P1
  D:00A0H         PUBLIC        P2
  D:00B0H         PUBLIC        P3
BL51 BANKED LINKER/LOCATER V6.22.2.0                                                  07/02/2021  21:25:49  PAGE 16


  D:00C0H         PUBLIC        P4
  D:00C8H         PUBLIC        P5
  D:00BAH         PUBLIC        P_SW2
  D:00A8H         PUBLIC        IE
  D:00B8H         PUBLIC        IP
  D:00D8H         PUBLIC        CCON
  C:90D3H         PUBLIC        _send_data
  C:005EH         PUBLIC        _iic_change_pin
  C:90A6H         PUBLIC        recv_data
  C:9141H         PUBLIC        start
  D:0098H         PUBLIC        SCON
  D:0088H         PUBLIC        TCON
  C:8A90H         PUBLIC        wait
  C:9190H         PUBLIC        send_ack
  C:914AH         PUBLIC        recv_ack
  C:9153H         PUBLIC        stop
  C:9180H         PUBLIC        send_nak
  C:878AH         PUBLIC        _iic_init
  C:7C41H         PUBLIC        _iic_read_reg
  C:778BH         PUBLIC        _iic_read_reg_bytes
  C:80B1H         PUBLIC        _iic_write_reg
  C:904BH         PUBLIC        _iic_delay_us
  D:00D0H         PUBLIC        PSW
  C:8DCFH         SYMBOL        Com004D
  C:8DCFH         SYMBOL        L?0078
  C:8DD2H         SYMBOL        L?0079
  C:8DDEH         SYMBOL        L?0080
  C:8DDEH         SYMBOL        L?0081
  C:8DE6H         SYMBOL        L?0082
  -------         PROC          COM004D
  -------         ENDPROC       COM004D
  -------         PROC          _IIC_DELAY_US
  D:0006H         SYMBOL        x
  -------         DO            
  D:0005H         SYMBOL        i
  -------         ENDDO         
  C:904BH         LINE#         30
  C:904BH         LINE#         31
  C:904BH         LINE#         33
  C:9055H         LINE#         34
  C:9055H         LINE#         35
  C:9057H         LINE#         36
  C:905DH         LINE#         37
  C:905DH         LINE#         38
  -------         ENDPROC       _IIC_DELAY_US
  -------         PROC          WAIT
  -------         DO            
  X:03CAH         SYMBOL        count
  D:0004H         SYMBOL        ret
  -------         ENDDO         
  C:8A90H         LINE#         47
  C:8A90H         LINE#         48
  C:8A90H         LINE#         49
  C:8A97H         LINE#         50
  C:8A98H         LINE#         51
  C:8A9FH         LINE#         52
  C:8A9FH         LINE#         53
BL51 BANKED LINKER/LOCATER V6.22.2.0                                                  07/02/2021  21:25:49  PAGE 17


  C:8AA6H         LINE#         54
  C:8ABBH         LINE#         55
  C:8ABBH         LINE#         56
  C:8ABDH         LINE#         57
  C:8ABDH         LINE#         58
  C:8ABDH         LINE#         59
  C:8ABDH         LINE#         60
  C:8AC4H         LINE#         61
  C:8AC6H         LINE#         62
  -------         ENDPROC       WAIT
  -------         PROC          START
  -------         DO            
  D:0007H         SYMBOL        ret
  -------         ENDDO         
  C:9141H         LINE#         70
  C:9141H         LINE#         71
  C:9141H         LINE#         73
  C:9147H         LINE#         74
  -------         ENDPROC       START
  -------         PROC          _SEND_DATA
  D:0007H         SYMBOL        dat
  -------         DO            
  D:0007H         SYMBOL        ret
  -------         ENDDO         
  C:90D3H         LINE#         84
  C:90D3H         LINE#         85
  C:90D3H         LINE#         87
  C:90D8H         LINE#         88
  C:90DEH         LINE#         89
  -------         ENDPROC       _SEND_DATA
  -------         PROC          RECV_ACK
  -------         DO            
  D:0007H         SYMBOL        ret
  -------         ENDDO         
  C:914AH         LINE#         99
  C:914AH         LINE#         100
  C:914AH         LINE#         102
  C:9150H         LINE#         103
  -------         ENDPROC       RECV_ACK
  -------         PROC          RECV_DATA
  C:90A6H         LINE#         113
  C:90A6H         LINE#         114
  C:90A6H         LINE#         115
  C:90ACH         LINE#         116
  C:90AFH         LINE#         117
  C:90B4H         LINE#         118
  -------         ENDPROC       RECV_DATA
  -------         PROC          SEND_ACK
  -------         DO            
  D:0007H         SYMBOL        ret
  -------         ENDDO         
  C:9190H         LINE#         126
  C:9190H         LINE#         127
  C:9190H         LINE#         129
  C:9191H         LINE#         130
  C:9194H         LINE#         131
  -------         ENDPROC       SEND_ACK
BL51 BANKED LINKER/LOCATER V6.22.2.0                                                  07/02/2021  21:25:49  PAGE 18


  -------         PROC          SEND_NAK
  C:9180H         LINE#         141
  C:9180H         LINE#         142
  C:9180H         LINE#         143
  C:9182H         LINE#         144
  C:9185H         LINE#         145
  -------         ENDPROC       SEND_NAK
  -------         PROC          STOP
  -------         DO            
  D:0007H         SYMBOL        ret
  -------         ENDDO         
  C:9153H         LINE#         154
  C:9153H         LINE#         155
  C:9153H         LINE#         157
  C:9159H         LINE#         158
  -------         ENDPROC       STOP
  -------         PROC          _IIC_INIT
  D:0007H         SYMBOL        iic_n
  X:0389H         SYMBOL        scl_pin
  X:038AH         SYMBOL        sda_pin
  X:038BH         SYMBOL        wait_time
  C:878AH         LINE#         169
  C:878AH         LINE#         170
  C:878AH         LINE#         171
  C:878AH         LINE#         172
  C:878AH         LINE#         173
  C:878DH         LINE#         174
  C:8790H         LINE#         175
  C:879CH         LINE#         176
  C:879CH         LINE#         177
  C:879CH         LINE#         178
  C:879CH         LINE#         179
  C:879EH         LINE#         180
  C:879EH         LINE#         181
  C:87A1H         LINE#         182
  C:87A3H         LINE#         183
  C:87A3H         LINE#         184
  C:87A6H         LINE#         185
  C:87A8H         LINE#         186
  C:87A8H         LINE#         187
  C:87ABH         LINE#         188
  C:87ABH         LINE#         189
  C:87ABH         LINE#         191
  C:87B2H         LINE#         192
  C:87B6H         LINE#         193
  C:87CBH         LINE#         194
  C:87D0H         LINE#         195
  -------         ENDPROC       _IIC_INIT
  -------         PROC          _IIC_WRITE_REG
  D:0007H         SYMBOL        iic_n
  D:0001H         SYMBOL        dev_add
  D:0003H         SYMBOL        reg
  X:03BCH         SYMBOL        dat
  C:80B1H         LINE#         207
  C:80B1H         LINE#         208
  C:80B1H         LINE#         209
  C:80B1H         LINE#         210
BL51 BANKED LINKER/LOCATER V6.22.2.0                                                  07/02/2021  21:25:49  PAGE 19


  C:80BEH         LINE#         211
  C:80BEH         LINE#         212
  C:80BEH         LINE#         213
  C:80BEH         LINE#         214
  C:80C0H         LINE#         215
  C:80C0H         LINE#         216
  C:80C3H         LINE#         217
  C:80C5H         LINE#         218
  C:80C5H         LINE#         219
  C:80C8H         LINE#         220
  C:80CAH         LINE#         221
  C:80CAH         LINE#         222
  C:80CDH         LINE#         223
  C:80CDH         LINE#         224
  C:80CDH         LINE#         226
  C:80D3H         LINE#         227
  C:80D6H         LINE#         228
  C:80E2H         LINE#         229
  C:80E5H         LINE#         230
  C:80EBH         LINE#         231
  C:80EEH         LINE#         232
  C:80F6H         LINE#         233
  C:80F9H         LINE#         234
  C:80FFH         LINE#         235
  C:8102H         LINE#         236
  C:810DH         LINE#         237
  C:8110H         LINE#         238
  C:8116H         LINE#         239
  C:8119H         LINE#         240
  C:811FH         LINE#         241
  C:8122H         LINE#         244
  C:8124H         LINE#         245
  -------         ENDPROC       _IIC_WRITE_REG
  -------         PROC          _IIC_READ_REG
  D:0007H         SYMBOL        iic_n
  D:0001H         SYMBOL        dev_add
  D:0003H         SYMBOL        reg
  X:03A0H         SYMBOL        dat
  C:7C41H         LINE#         257
  C:7C41H         LINE#         258
  C:7C41H         LINE#         259
  C:7C41H         LINE#         260
  C:7C4EH         LINE#         261
  C:7C4EH         LINE#         262
  C:7C4EH         LINE#         263
  C:7C4EH         LINE#         264
  C:7C50H         LINE#         265
  C:7C50H         LINE#         266
  C:7C53H         LINE#         267
  C:7C55H         LINE#         268
  C:7C55H         LINE#         269
  C:7C58H         LINE#         270
  C:7C5AH         LINE#         271
  C:7C5AH         LINE#         272
  C:7C5DH         LINE#         273
  C:7C5DH         LINE#         274
  C:7C5DH         LINE#         276
BL51 BANKED LINKER/LOCATER V6.22.2.0                                                  07/02/2021  21:25:49  PAGE 20


  C:7C63H         LINE#         277
  C:7C66H         LINE#         279
  C:7C70H         LINE#         280
  C:7C73H         LINE#         281
  C:7C79H         LINE#         282
  C:7C7CH         LINE#         284
  C:7C84H         LINE#         285
  C:7C87H         LINE#         286
  C:7C8DH         LINE#         287
  C:7C90H         LINE#         293
  C:7C9EH         LINE#         294
  C:7CA1H         LINE#         296
  C:7CA7H         LINE#         297
  C:7CAAH         LINE#         299
  C:7CB3H         LINE#         301
  C:7CB9H         LINE#         302
  C:7CBCH         LINE#         304
  C:7CC2H         LINE#         305
  C:7CC5H         LINE#         307
  C:7CC7H         LINE#         308
  -------         ENDPROC       _IIC_READ_REG
  -------         PROC          _IIC_READ_REG_BYTES
  D:0007H         SYMBOL        iic_n
  D:0001H         SYMBOL        dev_add
  D:0003H         SYMBOL        reg
  X:0392H         SYMBOL        dat
  X:0395H         SYMBOL        num
  C:778BH         LINE#         321
  C:778BH         LINE#         323
  C:778BH         LINE#         324
  C:778BH         LINE#         325
  C:7798H         LINE#         326
  C:7798H         LINE#         327
  C:7798H         LINE#         328
  C:7798H         LINE#         329
  C:779AH         LINE#         330
  C:779AH         LINE#         331
  C:779DH         LINE#         332
  C:779FH         LINE#         333
  C:779FH         LINE#         334
  C:77A2H         LINE#         335
  C:77A4H         LINE#         336
  C:77A4H         LINE#         337
  C:77A7H         LINE#         338
  C:77A7H         LINE#         339
  C:77A7H         LINE#         341
  C:77ADH         LINE#         342
  C:77B0H         LINE#         344
  C:77BAH         LINE#         345
  C:77BDH         LINE#         346
  C:77C3H         LINE#         347
  C:77C6H         LINE#         349
  C:77CEH         LINE#         350
  C:77D1H         LINE#         351
  C:77D7H         LINE#         352
  C:77DAH         LINE#         354
  C:77E8H         LINE#         355
BL51 BANKED LINKER/LOCATER V6.22.2.0                                                  07/02/2021  21:25:49  PAGE 21


  C:77EBH         LINE#         356
  C:77F1H         LINE#         357
  C:77F4H         LINE#         359
  C:77FCH         LINE#         360
  C:77FCH         LINE#         361
  C:7802H         LINE#         362
  C:7808H         LINE#         363
  C:7808H         LINE#         364
  C:780BH         LINE#         365
  C:780BH         LINE#         366
  C:7815H         LINE#         367
  C:7817H         LINE#         369
  C:781DH         LINE#         371
  C:7823H         LINE#         372
  C:7826H         LINE#         374
  C:782CH         LINE#         375
  C:782FH         LINE#         377
  C:7831H         LINE#         378
  -------         ENDPROC       _IIC_READ_REG_BYTES
  -------         PROC          _IIC_CHANGE_PIN
  D:0007H         SYMBOL        iic_n
  X:0001H         SYMBOL        scl_pin
  X:0002H         SYMBOL        sda_pin
  C:005EH         LINE#         388
  C:005EH         LINE#         389
  C:005EH         LINE#         390
  C:005EH         LINE#         391
  C:005EH         LINE#         392
  C:0061H         LINE#         394
  C:0064H         LINE#         395
  C:0070H         LINE#         396
  C:0070H         LINE#         397
  C:0070H         LINE#         398
  C:0070H         LINE#         399
  C:0072H         LINE#         400
  C:0072H         LINE#         401
  C:0075H         LINE#         402
  C:0077H         LINE#         403
  C:0077H         LINE#         404
  C:007AH         LINE#         405
  C:007CH         LINE#         406
  C:007CH         LINE#         407
  C:007FH         LINE#         408
  C:007FH         LINE#         409
  C:007FH         LINE#         411
  C:0082H         LINE#         413
  -------         ENDPROC       _IIC_CHANGE_PIN
  -------         ENDMOD        ZF_IIC

  -------         MODULE        ZF_UART
  C:0000H         SYMBOL        _ICE_DUMMY_
  D:0080H         PUBLIC        P0
  D:0090H         PUBLIC        P1
  D:00A0H         PUBLIC        P2
  D:00CAH         PUBLIC        P5M0
  D:00B0H         PUBLIC        P3
  D:00C9H         PUBLIC        P5M1
BL51 BANKED LINKER/LOCATER V6.22.2.0                                                  07/02/2021  21:25:49  PAGE 22


  D:00C0H         PUBLIC        P4
  D:00C8H         PUBLIC        P5
  D:00A2H         PUBLIC        P_SW1
  D:00BAH         PUBLIC        P_SW2
  D:00A8H         PUBLIC        IE
  B:00A8H.4       PUBLIC        ES
  D:00B8H         PUBLIC        IP
  C:862AH         PUBLIC        _uart_putchar
  C:8E79H         PUBLIC        _uart_putbuff
  D:00D8H         PUBLIC        CCON
  D:0099H         PUBLIC        SBUF
  D:0098H         PUBLIC        SCON
  D:0089H         PUBLIC        TMOD
  D:0088H         PUBLIC        TCON
  D:00AFH         PUBLIC        IE2
  X:01CCH         PUBLIC        uart1_rx_buff
  D:008EH         PUBLIC        AUXR
  X:0230H         PUBLIC        uart1_tx_buff
  X:0294H         PUBLIC        busy
  D:008DH         PUBLIC        TH1
  D:00D6H         PUBLIC        T2H
  D:00D4H         PUBLIC        T3H
  D:00D2H         PUBLIC        T4H
  D:008BH         PUBLIC        TL1
  D:00D7H         PUBLIC        T2L
  D:00D5H         PUBLIC        T3L
  D:00D3H         PUBLIC        T4L
  C:8E9AH         PUBLIC        _uart_putstr
  C:5C71H         PUBLIC        _uart_init
  B:0088H.6       PUBLIC        TR1
  D:00D1H         PUBLIC        T4T3M
  D:009BH         PUBLIC        S2BUF
  D:00ADH         PUBLIC        S3BUF
  D:0085H         PUBLIC        S4BUF
  D:009AH         PUBLIC        S2CON
  D:00ACH         PUBLIC        S3CON
  D:0084H         PUBLIC        S4CON
  D:00D0H         PUBLIC        PSW
  C:8D5EH         SYMBOL        Com0036
  C:8D5EH         SYMBOL        L?0055
  C:8D61H         SYMBOL        L?0056
  C:8D6AH         SYMBOL        L?0057
  C:8D6AH         SYMBOL        L?0058
  C:8D72H         SYMBOL        L?0059
  C:8D72H         SYMBOL        L?0060
  C:8D7AH         SYMBOL        L?0061
  -------         PROC          COM0036
  -------         ENDPROC       COM0036
  -------         PROC          _UART_INIT
  X:00E9H         SYMBOL        uart_n
  X:00EAH         SYMBOL        uart_rx_pin
  X:00EBH         SYMBOL        uart_tx_pin
  X:00ECH         SYMBOL        baud
  X:00F0H         SYMBOL        tim_n
  -------         DO            
  D:0004H         SYMBOL        brt
  -------         ENDDO         
BL51 BANKED LINKER/LOCATER V6.22.2.0                                                  07/02/2021  21:25:49  PAGE 23


  C:5C71H         LINE#         45
  C:5C7CH         LINE#         46
  C:5C7CH         LINE#         49
  C:5CABH         LINE#         51
  C:5CC8H         LINE#         52
  C:5CC8H         LINE#         53
  C:5CC8H         LINE#         54
  C:5CC8H         LINE#         55
  C:5CCFH         LINE#         56
  C:5CCFH         LINE#         57
  C:5CD2H         LINE#         58
  C:5CD2H         LINE#         59
  C:5CD4H         LINE#         60
  C:5CD7H         LINE#         61
  C:5CDAH         LINE#         62
  C:5CDCH         LINE#         63
  C:5CE1H         LINE#         64
  C:5CE3H         LINE#         65
  C:5CE9H         LINE#         66
  C:5CE9H         LINE#         67
  C:5CECH         LINE#         68
  C:5CEEH         LINE#         69
  C:5CF1H         LINE#         70
  C:5CF4H         LINE#         71
  C:5CF4H         LINE#         72
  C:5CF7H         LINE#         73
  C:5D07H         LINE#         74
  C:5D07H         LINE#         75
  C:5D07H         LINE#         76
  C:5D09H         LINE#         77
  C:5D17H         LINE#         78
  C:5D17H         LINE#         79
  C:5D1AH         LINE#         80
  C:5D1CH         LINE#         81
  C:5D29H         LINE#         82
  C:5D29H         LINE#         83
  C:5D2CH         LINE#         84
  C:5D2EH         LINE#         85
  C:5D3BH         LINE#         86
  C:5D3BH         LINE#         87
  C:5D3EH         LINE#         88
  C:5D3EH         LINE#         89
  C:5D43H         LINE#         90
  C:5D45H         LINE#         91
  C:5D46H         LINE#         92
  C:5D46H         LINE#         94
  C:5D46H         LINE#         95
  C:5D46H         LINE#         96
  C:5D4EH         LINE#         97
  C:5D4EH         LINE#         98
  C:5D4EH         LINE#         99
  C:5D4EH         LINE#         100
  C:5D4EH         LINE#         101
  C:5D51H         LINE#         102
  C:5D51H         LINE#         104
  C:5D54H         LINE#         105
  C:5D61H         LINE#         106
BL51 BANKED LINKER/LOCATER V6.22.2.0                                                  07/02/2021  21:25:49  PAGE 24


  C:5D61H         LINE#         107
  C:5D61H         LINE#         108
  C:5D63H         LINE#         109
  C:5D71H         LINE#         110
  C:5D71H         LINE#         111
  C:5D74H         LINE#         112
  C:5D74H         LINE#         114
  C:5D77H         LINE#         115
  C:5D7CH         LINE#         116
  C:5D7DH         LINE#         117
  C:5D7DH         LINE#         119
  C:5D7DH         LINE#         120
  C:5D7DH         LINE#         121
  C:5D84H         LINE#         122
  C:5D84H         LINE#         123
  C:5D84H         LINE#         124
  C:5D84H         LINE#         125
  C:5D84H         LINE#         126
  C:5D87H         LINE#         127
  C:5D89H         LINE#         128
  C:5D8FH         LINE#         129
  C:5D8FH         LINE#         130
  C:5D92H         LINE#         131
  C:5D94H         LINE#         132
  C:5D97H         LINE#         133
  C:5D9AH         LINE#         134
  C:5D9AH         LINE#         136
  C:5D9DH         LINE#         137
  C:5DAAH         LINE#         138
  C:5DAAH         LINE#         139
  C:5DAAH         LINE#         140
  C:5DACH         LINE#         141
  C:5DBAH         LINE#         142
  C:5DBAH         LINE#         143
  C:5DBDH         LINE#         144
  C:5DBDH         LINE#         146
  C:5DC0H         LINE#         147
  C:5DC5H         LINE#         148
  C:5DC6H         LINE#         149
  C:5DC6H         LINE#         151
  C:5DC6H         LINE#         152
  C:5DC6H         LINE#         153
  C:5DCDH         LINE#         154
  C:5DCDH         LINE#         155
  C:5DD0H         LINE#         156
  C:5DD0H         LINE#         157
  C:5DD0H         LINE#         158
  C:5DD3H         LINE#         159
  C:5DD5H         LINE#         160
  C:5DDBH         LINE#         161
  C:5DDBH         LINE#         162
  C:5DDEH         LINE#         163
  C:5DE0H         LINE#         164
  C:5DE3H         LINE#         165
  C:5DE6H         LINE#         166
  C:5DE6H         LINE#         168
  C:5DE9H         LINE#         169
BL51 BANKED LINKER/LOCATER V6.22.2.0                                                  07/02/2021  21:25:49  PAGE 25


  C:5DF6H         LINE#         170
  C:5DF6H         LINE#         171
  C:5DF6H         LINE#         172
  C:5DF8H         LINE#         173
  C:5E06H         LINE#         174
  C:5E06H         LINE#         175
  C:5E08H         LINE#         176
  C:5E0BH         LINE#         177
  C:5E0EH         LINE#         178
  C:5E0EH         LINE#         179
  C:5E11H         LINE#         180
  C:5E16H         LINE#         181
  C:5E16H         LINE#         182
  C:5E16H         LINE#         183
  C:5E16H         LINE#         184
  -------         ENDPROC       _UART_INIT
  -------         PROC          L?0053
  -------         ENDPROC       L?0053
  -------         PROC          _UART_PUTCHAR
  D:0007H         SYMBOL        uart_n
  D:0005H         SYMBOL        dat
  C:862AH         LINE#         194
  C:862AH         LINE#         195
  C:862AH         LINE#         196
  C:8638H         LINE#         197
  C:8638H         LINE#         198
  C:8638H         LINE#         199
  C:863EH         LINE#         200
  C:8640H         LINE#         201
  C:8642H         LINE#         202
  C:8643H         LINE#         203
  C:8643H         LINE#         204
  C:8649H         LINE#         205
  C:864BH         LINE#         206
  C:864DH         LINE#         207
  C:864EH         LINE#         208
  C:864EH         LINE#         209
  C:8654H         LINE#         210
  C:8656H         LINE#         211
  C:8658H         LINE#         212
  C:8659H         LINE#         213
  C:8659H         LINE#         214
  C:865FH         LINE#         215
  C:8661H         LINE#         216
  C:8665H         LINE#         217
  C:8665H         LINE#         218
  C:8665H         LINE#         219
  -------         ENDPROC       _UART_PUTCHAR
  -------         PROC          _UART_PUTBUFF
  D:0006H         SYMBOL        uart_n
  X:03A4H         SYMBOL        p
  X:03A7H         SYMBOL        len
  C:8E79H         LINE#         230
  C:8E7FH         LINE#         231
  C:8E7FH         LINE#         232
  C:8E8DH         LINE#         233
  C:8E99H         LINE#         234
BL51 BANKED LINKER/LOCATER V6.22.2.0                                                  07/02/2021  21:25:49  PAGE 26


  -------         ENDPROC       _UART_PUTBUFF
  -------         PROC          _UART_PUTSTR
  D:0006H         SYMBOL        uart_n
  X:03C1H         SYMBOL        str
  C:8E9AH         LINE#         244
  C:8EA0H         LINE#         245
  C:8EA0H         LINE#         246
  C:8EB0H         LINE#         247
  C:8EB0H         LINE#         248
  C:8EB8H         LINE#         249
  C:8EBAH         LINE#         250
  -------         ENDPROC       _UART_PUTSTR
  -------         ENDMOD        ZF_UART

  -------         MODULE        ZF_ADC
  C:0000H         SYMBOL        _ICE_DUMMY_
  D:0093H         PUBLIC        P0M1
  D:0092H         PUBLIC        P1M0
  D:0091H         PUBLIC        P1M1
  D:0080H         PUBLIC        P0
  D:0090H         PUBLIC        P1
  D:00A0H         PUBLIC        P2
  D:00B0H         PUBLIC        P3
  D:00C0H         PUBLIC        P4
  D:00C8H         PUBLIC        P5
  D:00A8H         PUBLIC        IE
  D:00BDH         PUBLIC        ADC_RES
  D:00B8H         PUBLIC        IP
  D:00DEH         PUBLIC        ADCCFG
  D:00D8H         PUBLIC        CCON
  C:8CB7H         PUBLIC        _adc_once
  D:00BCH         PUBLIC        ADC_CONTR
  D:0098H         PUBLIC        SCON
  D:0088H         PUBLIC        TCON
  C:8666H         PUBLIC        _adc_init
  D:00BEH         PUBLIC        ADC_RESL
  D:00D0H         PUBLIC        PSW
  D:0094H         PUBLIC        P0M0
  -------         PROC          _ADC_INIT
  D:0007H         SYMBOL        adcn
  D:0005H         SYMBOL        speed
  C:8666H         LINE#         32
  C:8666H         LINE#         33
  C:8666H         LINE#         34
  C:8669H         LINE#         36
  C:8676H         LINE#         37
  C:8676H         LINE#         39
  C:8688H         LINE#         40
  C:868BH         LINE#         41
  C:868DH         LINE#         42
  C:8691H         LINE#         43
  C:8691H         LINE#         45
  C:86A3H         LINE#         46
  C:86A6H         LINE#         47
  C:86A6H         LINE#         49
  C:86ABH         LINE#         55
  C:86AEH         LINE#         57
BL51 BANKED LINKER/LOCATER V6.22.2.0                                                  07/02/2021  21:25:49  PAGE 27


  -------         ENDPROC       _ADC_INIT
  -------         PROC          _ADC_ONCE
  D:0007H         SYMBOL        adcn
  D:0001H         SYMBOL        resolution
  -------         DO            
  D:0006H         SYMBOL        adc_value
  -------         ENDDO         
  C:8CB7H         LINE#         68
  C:8CB9H         LINE#         69
  C:8CB9H         LINE#         72
  C:8CBCH         LINE#         73
  C:8CBFH         LINE#         75
  C:8CC2H         LINE#         76
  C:8CC7H         LINE#         77
  C:8CCAH         LINE#         80
  C:8CCCH         LINE#         81
  C:8CCEH         LINE#         82
  C:8CD2H         LINE#         86
  C:8CE1H         LINE#         89
  C:8CE1H         LINE#         90
  -------         ENDPROC       _ADC_ONCE
  -------         ENDMOD        ZF_ADC

  -------         MODULE        ZF_TIM
  C:0000H         SYMBOL        _ICE_DUMMY_
  D:0080H         PUBLIC        P0
  D:0090H         PUBLIC        P1
  D:00A0H         PUBLIC        P2
  D:00B0H         PUBLIC        P3
  D:00C0H         PUBLIC        P4
  D:00C8H         PUBLIC        P5
  D:00A8H         PUBLIC        IE
  C:8818H         PUBLIC        _ctimer_count_read
  C:7A9BH         PUBLIC        _pit_timer_ms
  D:00B8H         PUBLIC        IP
  D:00D8H         PUBLIC        CCON
  C:88A2H         PUBLIC        _ctimer_count_init
  D:0098H         PUBLIC        SCON
  D:0089H         PUBLIC        TMOD
  D:0088H         PUBLIC        TCON
  D:00AFH         PUBLIC        IE2
  D:008EH         PUBLIC        AUXR
  B:00A8H.1       PUBLIC        ET0
  B:00A8H.3       PUBLIC        ET1
  D:008CH         PUBLIC        TH0
  D:008DH         PUBLIC        TH1
  D:00D6H         PUBLIC        T2H
  D:00D4H         PUBLIC        T3H
  D:00D2H         PUBLIC        T4H
  D:008AH         PUBLIC        TL0
  D:008BH         PUBLIC        TL1
  D:00D7H         PUBLIC        T2L
  D:00D5H         PUBLIC        T3L
  D:00D3H         PUBLIC        T4L
  B:0088H.4       PUBLIC        TR0
  B:0088H.6       PUBLIC        TR1
  D:00D1H         PUBLIC        T4T3M
BL51 BANKED LINKER/LOCATER V6.22.2.0                                                  07/02/2021  21:25:49  PAGE 28


  D:00D0H         PUBLIC        PSW
  C:86AFH         PUBLIC        _ctimer_count_clean
  -------         PROC          _CTIMER_COUNT_INIT
  D:0007H         SYMBOL        tim_n
  C:88A2H         LINE#         39
  C:88A2H         LINE#         40
  C:88A2H         LINE#         41
  C:88B3H         LINE#         42
  C:88B3H         LINE#         43
  C:88B3H         LINE#         44
  C:88B3H         LINE#         45
  C:88B6H         LINE#         46
  C:88B8H         LINE#         47
  C:88BBH         LINE#         48
  C:88BDH         LINE#         49
  C:88BEH         LINE#         50
  C:88BEH         LINE#         52
  C:88BEH         LINE#         53
  C:88BEH         LINE#         54
  C:88C1H         LINE#         55
  C:88C3H         LINE#         56
  C:88C6H         LINE#         57
  C:88C8H         LINE#         58
  C:88C9H         LINE#         59
  C:88C9H         LINE#         61
  C:88C9H         LINE#         62
  C:88C9H         LINE#         63
  C:88CCH         LINE#         64
  C:88CEH         LINE#         65
  C:88D1H         LINE#         66
  C:88D2H         LINE#         67
  C:88D2H         LINE#         69
  C:88D2H         LINE#         70
  C:88D2H         LINE#         71
  C:88D5H         LINE#         72
  C:88D7H         LINE#         73
  C:88DAH         LINE#         74
  C:88DBH         LINE#         75
  C:88DBH         LINE#         77
  C:88DBH         LINE#         78
  C:88DBH         LINE#         79
  C:88DEH         LINE#         80
  C:88E0H         LINE#         81
  C:88E3H         LINE#         82
  C:88E3H         LINE#         83
  C:88E3H         LINE#         85
  C:88E3H         LINE#         86
  -------         ENDPROC       _CTIMER_COUNT_INIT
  -------         PROC          _CTIMER_COUNT_READ
  D:0007H         SYMBOL        tim_n
  -------         DO            
  D:0004H         SYMBOL        dat
  -------         ENDDO         
  C:8818H         LINE#         94
  C:8818H         LINE#         95
  C:8818H         LINE#         98
  C:8829H         LINE#         99
BL51 BANKED LINKER/LOCATER V6.22.2.0                                                  07/02/2021  21:25:49  PAGE 29


  C:8829H         LINE#         100
  C:8829H         LINE#         101
  C:8829H         LINE#         102
  C:882DH         LINE#         103
  C:8831H         LINE#         104
  C:8833H         LINE#         105
  C:8833H         LINE#         106
  C:8833H         LINE#         107
  C:8833H         LINE#         108
  C:8837H         LINE#         109
  C:883BH         LINE#         110
  C:883DH         LINE#         111
  C:883DH         LINE#         112
  C:883DH         LINE#         113
  C:883DH         LINE#         114
  C:8841H         LINE#         115
  C:8845H         LINE#         116
  C:8847H         LINE#         117
  C:8847H         LINE#         118
  C:8847H         LINE#         119
  C:8847H         LINE#         120
  C:884BH         LINE#         121
  C:884FH         LINE#         122
  C:8851H         LINE#         123
  C:8851H         LINE#         124
  C:8851H         LINE#         125
  C:8851H         LINE#         126
  C:8855H         LINE#         127
  C:8859H         LINE#         128
  C:8859H         LINE#         129
  C:8859H         LINE#         131
  C:8859H         LINE#         134
  C:885DH         LINE#         135
  -------         ENDPROC       _CTIMER_COUNT_READ
  -------         PROC          _CTIMER_COUNT_CLEAN
  D:0007H         SYMBOL        tim_n
  C:86AFH         LINE#         144
  C:86AFH         LINE#         145
  C:86AFH         LINE#         146
  C:86C0H         LINE#         147
  C:86C0H         LINE#         148
  C:86C0H         LINE#         149
  C:86C0H         LINE#         150
  C:86C2H         LINE#         151
  C:86C5H         LINE#         152
  C:86C7H         LINE#         153
  C:86C9H         LINE#         154
  C:86CAH         LINE#         155
  C:86CAH         LINE#         156
  C:86CAH         LINE#         157
  C:86CAH         LINE#         158
  C:86CCH         LINE#         159
  C:86CFH         LINE#         160
  C:86D1H         LINE#         161
  C:86D3H         LINE#         162
  C:86D4H         LINE#         163
  C:86D4H         LINE#         164
BL51 BANKED LINKER/LOCATER V6.22.2.0                                                  07/02/2021  21:25:49  PAGE 30


  C:86D4H         LINE#         165
  C:86D4H         LINE#         166
  C:86D7H         LINE#         167
  C:86DAH         LINE#         168
  C:86DCH         LINE#         169
  C:86DFH         LINE#         170
  C:86E0H         LINE#         171
  C:86E0H         LINE#         172
  C:86E0H         LINE#         173
  C:86E0H         LINE#         174
  C:86E3H         LINE#         175
  C:86E6H         LINE#         176
  C:86E8H         LINE#         177
  C:86EBH         LINE#         178
  C:86ECH         LINE#         179
  C:86ECH         LINE#         180
  C:86ECH         LINE#         181
  C:86ECH         LINE#         182
  C:86EFH         LINE#         183
  C:86F2H         LINE#         184
  C:86F4H         LINE#         185
  C:86F7H         LINE#         186
  C:86F7H         LINE#         187
  C:86F7H         LINE#         188
  C:86F7H         LINE#         189
  -------         ENDPROC       _CTIMER_COUNT_CLEAN
  -------         PROC          _PIT_TIMER_MS
  X:00E9H         SYMBOL        tim_n
  D:0004H         SYMBOL        time_ms
  -------         DO            
  D:0006H         SYMBOL        temp
  -------         ENDDO         
  C:7A9BH         LINE#         199
  C:7AA0H         LINE#         200
  C:7AA0H         LINE#         202
  C:7ACDH         LINE#         204
  C:7AD7H         LINE#         205
  C:7AD7H         LINE#         206
  C:7AD7H         LINE#         207
  C:7AD9H         LINE#         208
  C:7ADCH         LINE#         209
  C:7ADEH         LINE#         210
  C:7AE0H         LINE#         211
  C:7AE1H         LINE#         212
  C:7AE7H         LINE#         213
  C:7AE7H         LINE#         214
  C:7AE7H         LINE#         215
  C:7AE9H         LINE#         216
  C:7AECH         LINE#         217
  C:7AEEH         LINE#         218
  C:7AF0H         LINE#         219
  C:7AF1H         LINE#         220
  C:7AF9H         LINE#         221
  C:7AF9H         LINE#         222
  C:7AFBH         LINE#         223
  C:7AFEH         LINE#         224
  C:7B01H         LINE#         225
BL51 BANKED LINKER/LOCATER V6.22.2.0                                                  07/02/2021  21:25:49  PAGE 31


  C:7B04H         LINE#         226
  C:7B05H         LINE#         227
  C:7B0BH         LINE#         228
  C:7B0BH         LINE#         229
  C:7B0DH         LINE#         230
  C:7B10H         LINE#         231
  C:7B13H         LINE#         232
  C:7B16H         LINE#         233
  C:7B17H         LINE#         234
  C:7B1CH         LINE#         235
  C:7B1CH         LINE#         236
  C:7B1EH         LINE#         237
  C:7B21H         LINE#         238
  C:7B24H         LINE#         239
  C:7B27H         LINE#         240
  C:7B27H         LINE#         241
  -------         ENDPROC       _PIT_TIMER_MS
  -------         ENDMOD        ZF_TIM

  -------         MODULE        ZF_PWM
  C:0000H         SYMBOL        _ICE_DUMMY_
  C:7E52H         PUBLIC        _pwm_duty
  D:0080H         PUBLIC        P0
  D:0090H         PUBLIC        P1
  D:00A0H         PUBLIC        P2
  D:00B0H         PUBLIC        P3
  D:00C0H         PUBLIC        P4
  D:00C8H         PUBLIC        P5
  D:00BAH         PUBLIC        P_SW2
  D:00A8H         PUBLIC        IE
  D:00B8H         PUBLIC        IP
  D:00D8H         PUBLIC        CCON
  D:00F6H         PUBLIC        PWMCFG01
  D:00F7H         PUBLIC        PWMCFG23
  D:00FEH         PUBLIC        PWMCFG45
  D:0098H         PUBLIC        SCON
  D:0088H         PUBLIC        TCON
  D:00F1H         PUBLIC        PWMSET
  C:72B6H         PUBLIC        _pwm_freq
  C:67CEH         PUBLIC        _pwm_init
  D:00D0H         PUBLIC        PSW
  C:73A7H         SYMBOL        Com001D
  C:73A7H         SYMBOL        L?0030
  C:73ABH         SYMBOL        L?0031
  C:73B9H         SYMBOL        L?0032
  C:73BEH         SYMBOL        L?0033
  C:73C5H         SYMBOL        L?0034
  C:73C8H         SYMBOL        L?0035
  C:73CAH         SYMBOL        L?0036
  C:73D5H         SYMBOL        L?0037
  C:73DFH         SYMBOL        L?0038
  C:73F4H         SYMBOL        L?0039
  C:73F5H         SYMBOL        L?0040
  C:73FFH         SYMBOL        L?0041
  C:73FFH         SYMBOL        L?0042
  C:7413H         SYMBOL        L?0043
  C:742FH         SYMBOL        L?0044
BL51 BANKED LINKER/LOCATER V6.22.2.0                                                  07/02/2021  21:25:49  PAGE 32


  C:7435H         SYMBOL        L?0045
  C:743FH         SYMBOL        L?0046
  C:7441H         SYMBOL        L?0047
  C:744AH         SYMBOL        L?0048
  C:7459H         SYMBOL        L?0049
  C:7466H         SYMBOL        L?0050
  C:7467H         SYMBOL        L?0051
  C:746FH         SYMBOL        L?0052
  C:747CH         SYMBOL        L?0053
  C:7487H         SYMBOL        L?0054
  -------         PROC          COM001D
  -------         ENDPROC       COM001D
  -------         PROC          _PWM_INIT
  X:00E9H         SYMBOL        pwmch
  X:00EAH         SYMBOL        freq
  X:00EEH         SYMBOL        duty
  -------         DO            
  X:00F0H         SYMBOL        match_temp
  X:00F2H         SYMBOL        period_temp
  X:00F4H         SYMBOL        freq_div
  -------         ENDDO         
  C:67CEH         LINE#         33
  C:67D3H         LINE#         34
  C:67D3H         LINE#         37
  C:67D8H         LINE#         39
  C:67DDH         LINE#         41
  C:67F1H         LINE#         43
  C:67F4H         LINE#         45
  C:6807H         LINE#         49
  C:6829H         LINE#         50
  C:6853H         LINE#         52
  C:6862H         LINE#         53
  C:6862H         LINE#         54
  C:686FH         LINE#         55
  C:687AH         LINE#         56
  C:688AH         LINE#         58
  C:688FH         LINE#         59
  C:6891H         LINE#         61
  C:6891H         LINE#         62
  C:68A1H         LINE#         63
  C:68ACH         LINE#         64
  C:68BCH         LINE#         66
  C:68D9H         LINE#         67
  C:68D9H         LINE#         68
  C:68F3H         LINE#         69
  C:68F3H         LINE#         70
  C:68F3H         LINE#         71
  C:68F6H         LINE#         72
  C:68F8H         LINE#         73
  C:68F8H         LINE#         74
  C:68FBH         LINE#         75
  C:68FDH         LINE#         76
  C:68FDH         LINE#         77
  C:6900H         LINE#         78
  C:6902H         LINE#         79
  C:6902H         LINE#         80
  C:6905H         LINE#         81
BL51 BANKED LINKER/LOCATER V6.22.2.0                                                  07/02/2021  21:25:49  PAGE 33


  C:6907H         LINE#         82
  C:6907H         LINE#         83
  C:690AH         LINE#         84
  C:690CH         LINE#         85
  C:690CH         LINE#         86
  C:690FH         LINE#         87
  C:690FH         LINE#         88
  C:690FH         LINE#         89
  C:6912H         LINE#         90
  -------         ENDPROC       _PWM_INIT
  -------         PROC          _PWM_DUTY
  X:00F0H         SYMBOL        pwmch
  X:00F1H         SYMBOL        duty
  -------         DO            
  X:00F3H         SYMBOL        match_temp
  -------         ENDDO         
  C:7E52H         LINE#         100
  C:7E5DH         LINE#         101
  C:7E5DH         LINE#         104
  C:7E60H         LINE#         108
  C:7E68H         LINE#         109
  C:7E68H         LINE#         110
  C:7E88H         LINE#         111
  C:7E93H         LINE#         112
  C:7E95H         LINE#         114
  C:7E95H         LINE#         115
  C:7EB9H         LINE#         116
  C:7ECBH         LINE#         117
  C:7ECBH         LINE#         122
  C:7ECEH         LINE#         124
  -------         ENDPROC       _PWM_DUTY
  -------         PROC          _PWM_FREQ
  X:0328H         SYMBOL        pwmch
  X:0329H         SYMBOL        freq
  X:032DH         SYMBOL        duty
  -------         DO            
  X:032FH         SYMBOL        match_temp
  X:0333H         SYMBOL        period_temp
  X:0337H         SYMBOL        freq_div
  -------         ENDDO         
  C:72B6H         LINE#         135
  C:72BBH         LINE#         136
  C:72BBH         LINE#         139
  C:72BFH         LINE#         141
  C:72CEH         LINE#         142
  C:72EBH         LINE#         143
  C:7317H         LINE#         145
  C:731AH         LINE#         148
  C:732BH         LINE#         149
  C:732BH         LINE#         150
  C:7337H         LINE#         151
  C:7343H         LINE#         152
  C:7348H         LINE#         154
  C:734AH         LINE#         156
  C:734AH         LINE#         157
  C:7356H         LINE#         158
  C:7362H         LINE#         159
BL51 BANKED LINKER/LOCATER V6.22.2.0                                                  07/02/2021  21:25:49  PAGE 34


  C:736DH         LINE#         161
  C:736DH         LINE#         162
  C:7387H         LINE#         163
  C:7387H         LINE#         164
  C:7387H         LINE#         165
  C:738AH         LINE#         166
  C:738CH         LINE#         167
  C:738CH         LINE#         168
  C:738FH         LINE#         169
  C:7391H         LINE#         170
  C:7391H         LINE#         171
  C:7394H         LINE#         172
  C:7396H         LINE#         173
  C:7396H         LINE#         174
  C:7399H         LINE#         175
  C:739BH         LINE#         176
  C:739BH         LINE#         177
  C:739EH         LINE#         178
  C:73A0H         LINE#         179
  C:73A0H         LINE#         180
  C:73A3H         LINE#         181
  C:73A3H         LINE#         182
  C:73A3H         LINE#         184
  C:73A6H         LINE#         185
  -------         ENDPROC       _PWM_FREQ
  -------         ENDMOD        ZF_PWM

  -------         MODULE        ZF_PCA_PIT
  C:0000H         SYMBOL        _ICE_DUMMY_
  D:0080H         PUBLIC        P0
  D:0090H         PUBLIC        P1
  D:00A0H         PUBLIC        P2
  D:00B0H         PUBLIC        P3
  D:00C0H         PUBLIC        P4
  D:00C8H         PUBLIC        P5
  X:0346H         PUBLIC        pca_time_ms
  D:00F9H         PUBLIC        CH
  D:00A8H         PUBLIC        IE
  D:00E9H         PUBLIC        CL
  D:00FAH         PUBLIC        CCAP0H
  D:00FBH         PUBLIC        CCAP1H
  D:00FCH         PUBLIC        CCAP2H
  D:00EAH         PUBLIC        CCAP0L
  B:00D8H.6       PUBLIC        CR
  D:00EBH         PUBLIC        CCAP1L
  D:00DAH         PUBLIC        CCAPM0
  D:00ECH         PUBLIC        CCAP2L
  D:00DBH         PUBLIC        CCAPM1
  D:00B8H         PUBLIC        IP
  C:912DH         PUBLIC        _pca_clean
  D:00D9H         PUBLIC        CMOD
  D:00D8H         PUBLIC        CCON
  D:0098H         PUBLIC        SCON
  D:0088H         PUBLIC        TCON
  X:034CH         PUBLIC        ccp_value
  C:82CDH         PUBLIC        _pca_init
  C:9071H         PUBLIC        _pca_get
BL51 BANKED LINKER/LOCATER V6.22.2.0                                                  07/02/2021  21:25:49  PAGE 35


  C:7FC5H         PUBLIC        _pca_init_interrupt_ms
  C:8196H         PUBLIC        _pca_reload_counter
  D:00D0H         PUBLIC        PSW
  C:885EH         SYMBOL        Com001B
  C:885EH         SYMBOL        L?0028
  C:8884H         SYMBOL        L?0029
  C:8895H         SYMBOL        L?0030
  -------         PROC          COM001B
  -------         ENDPROC       COM001B
  -------         PROC          _PCA_INIT
  D:0007H         SYMBOL        pca_n
  D:0005H         SYMBOL        pca_mode
  C:82CDH         LINE#         35
  C:82CDH         LINE#         36
  C:82CDH         LINE#         41
  C:82D0H         LINE#         42
  C:82D3H         LINE#         44
  C:82D8H         LINE#         45
  C:82D8H         LINE#         46
  C:8303H         LINE#         47
  C:8303H         LINE#         48
  C:8303H         LINE#         49
  C:8303H         LINE#         50
  C:8306H         LINE#         51
  C:8307H         LINE#         52
  C:8307H         LINE#         53
  C:8307H         LINE#         54
  C:8307H         LINE#         55
  C:830AH         LINE#         56
  C:830BH         LINE#         57
  C:830BH         LINE#         58
  C:830BH         LINE#         59
  C:830BH         LINE#         60
  C:830EH         LINE#         61
  C:830FH         LINE#         62
  C:830FH         LINE#         63
  C:830FH         LINE#         64
  C:830FH         LINE#         65
  C:8312H         LINE#         66
  C:8313H         LINE#         67
  C:8313H         LINE#         69
  C:8313H         LINE#         70
  C:8313H         LINE#         71
  C:8316H         LINE#         72
  C:8317H         LINE#         73
  C:8317H         LINE#         74
  C:8317H         LINE#         75
  C:8317H         LINE#         76
  C:831AH         LINE#         77
  C:831BH         LINE#         78
  C:831BH         LINE#         79
  C:831BH         LINE#         80
  C:831BH         LINE#         81
  C:831EH         LINE#         82
  C:831FH         LINE#         83
  C:831FH         LINE#         84
  C:831FH         LINE#         85
BL51 BANKED LINKER/LOCATER V6.22.2.0                                                  07/02/2021  21:25:49  PAGE 36


  C:831FH         LINE#         86
  C:8322H         LINE#         87
  C:8323H         LINE#         88
  C:8323H         LINE#         89
  C:8323H         LINE#         90
  C:8323H         LINE#         91
  C:8326H         LINE#         92
  C:8328H         LINE#         93
  C:8329H         LINE#         94
  C:8329H         LINE#         95
  C:8329H         LINE#         96
  C:8329H         LINE#         97
  C:832CH         LINE#         98
  C:832CH         LINE#         99
  C:832CH         LINE#         100
  C:832CH         LINE#         101
  C:832CH         LINE#         102
  -------         ENDPROC       _PCA_INIT
  -------         PROC          _PCA_GET
  D:0007H         SYMBOL        pca_n
  -------         DO            
  D:0004H         SYMBOL        dat
  -------         ENDDO         
  C:9071H         LINE#         110
  C:9071H         LINE#         111
  C:9071H         LINE#         113
  C:9076H         LINE#         114
  C:9076H         LINE#         115
  C:907AH         LINE#         116
  C:907EH         LINE#         117
  C:907EH         LINE#         119
  C:9082H         LINE#         120
  -------         ENDPROC       _PCA_GET
  -------         PROC          _PCA_CLEAN
  D:0007H         SYMBOL        pca_n
  C:912DH         LINE#         127
  C:912DH         LINE#         128
  C:912DH         LINE#         129
  C:9132H         LINE#         130
  C:9132H         LINE#         131
  C:9134H         LINE#         132
  C:9136H         LINE#         133
  C:9136H         LINE#         134
  -------         ENDPROC       _PCA_CLEAN
  -------         PROC          _PCA_INIT_INTERRUPT_MS
  X:03C4H         SYMBOL        pca_n
  D:0004H         SYMBOL        time_ms
  -------         DO            
  X:03C5H         SYMBOL        cr_count
  -------         ENDDO         
  C:7FC5H         LINE#         146
  C:7FCAH         LINE#         147
  C:7FCAH         LINE#         149
  C:7FCCH         LINE#         150
  C:7FD9H         LINE#         151
  C:7FDFH         LINE#         152
  C:7FDFH         LINE#         153
BL51 BANKED LINKER/LOCATER V6.22.2.0                                                  07/02/2021  21:25:49  PAGE 37


  C:7FE6H         LINE#         154
  C:7FEEH         LINE#         155
  C:7FF1H         LINE#         156
  C:7FF6H         LINE#         157
  C:7FF9H         LINE#         158
  C:8009H         LINE#         159
  C:8009H         LINE#         160
  C:8011H         LINE#         161
  C:8011H         LINE#         162
  C:8014H         LINE#         163
  C:801CH         LINE#         164
  C:801FH         LINE#         165
  C:8024H         LINE#         166
  C:8027H         LINE#         167
  C:8038H         LINE#         168
  C:8038H         LINE#         179
  C:803AH         LINE#         180
  -------         ENDPROC       _PCA_INIT_INTERRUPT_MS
  -------         PROC          _PCA_RELOAD_COUNTER
  D:0005H         SYMBOL        pca_n
  C:8196H         LINE#         188
  C:8198H         LINE#         189
  C:8198H         LINE#         191
  C:819EH         LINE#         192
  C:819EH         LINE#         194
  C:81A7H         LINE#         195
  C:81AAH         LINE#         196
  C:81B5H         LINE#         197
  C:81B5H         LINE#         199
  C:81BBH         LINE#         200
  C:81BBH         LINE#         202
  C:81C4H         LINE#         203
  C:81C7H         LINE#         204
  C:81DBH         LINE#         205
  C:81DBH         LINE#         208
  C:81E0H         LINE#         209
  C:81E0H         LINE#         211
  C:81E9H         LINE#         212
  C:81ECH         LINE#         213
  C:8200H         LINE#         214
  C:8200H         LINE#         216
  -------         ENDPROC       _PCA_RELOAD_COUNTER
  -------         ENDMOD        ZF_PCA_PIT

  -------         MODULE        ZF_EXTI
  C:0000H         SYMBOL        _ICE_DUMMY_
  D:0080H         PUBLIC        P0
  D:0090H         PUBLIC        P1
  D:00A0H         PUBLIC        P2
  D:00B0H         PUBLIC        P3
  D:00C0H         PUBLIC        P4
  D:00C8H         PUBLIC        P5
  D:00A8H         PUBLIC        IE
  D:008FH         PUBLIC        INTCLKO
  D:00B8H         PUBLIC        IP
  D:00D8H         PUBLIC        CCON
  D:0098H         PUBLIC        SCON
BL51 BANKED LINKER/LOCATER V6.22.2.0                                                  07/02/2021  21:25:49  PAGE 38


  D:0088H         PUBLIC        TCON
  B:00A8H.0       PUBLIC        EX0
  B:0088H.0       PUBLIC        IT0
  B:00A8H.2       PUBLIC        EX1
  B:0088H.2       PUBLIC        IT1
  C:8B68H         PUBLIC        _exit_init
  D:00D0H         PUBLIC        PSW
  -------         PROC          _EXIT_INIT
  D:0007H         SYMBOL        int_n
  D:0005H         SYMBOL        mode
  C:8B68H         LINE#         30
  C:8B68H         LINE#         31
  C:8B68H         LINE#         32
  C:8B6BH         LINE#         33
  C:8B6BH         LINE#         34
  C:8B70H         LINE#         35
  C:8B72H         LINE#         36
  C:8B72H         LINE#         38
  C:8B77H         LINE#         39
  C:8B77H         LINE#         40
  C:8B7CH         LINE#         41
  C:8B7EH         LINE#         42
  C:8B7EH         LINE#         44
  C:8B86H         LINE#         45
  C:8B86H         LINE#         46
  C:8B89H         LINE#         47
  C:8B89H         LINE#         49
  C:8B8FH         LINE#         50
  C:8B8FH         LINE#         51
  C:8B92H         LINE#         52
  C:8B92H         LINE#         54
  C:8B98H         LINE#         55
  C:8B98H         LINE#         56
  C:8B9BH         LINE#         57
  C:8B9BH         LINE#         59
  -------         ENDPROC       _EXIT_INIT
  -------         ENDMOD        ZF_EXTI

  -------         MODULE        ZF_PCA_DELAY
  C:0000H         SYMBOL        _ICE_DUMMY_
  B:00D8H.2       PUBLIC        CCF2
  D:0080H         PUBLIC        P0
  D:0090H         PUBLIC        P1
  D:00A0H         PUBLIC        P2
  D:00B0H         PUBLIC        P3
  D:00C0H         PUBLIC        P4
  D:00C8H         PUBLIC        P5
  D:00F9H         PUBLIC        CH
  D:00A8H         PUBLIC        IE
  D:00E9H         PUBLIC        CL
  D:00FCH         PUBLIC        CCAP2H
  B:00D8H.6       PUBLIC        CR
  D:00ECH         PUBLIC        CCAP2L
  D:00DCH         PUBLIC        CCAPM2
  D:00B8H         PUBLIC        IP
  X:03CCH         PUBLIC        pca_delay_1ms
  D:00D9H         PUBLIC        CMOD
BL51 BANKED LINKER/LOCATER V6.22.2.0                                                  07/02/2021  21:25:49  PAGE 39


  D:00D8H         PUBLIC        CCON
  C:00A6H         PUBLIC        pca_delay
  D:0098H         PUBLIC        SCON
  D:0088H         PUBLIC        TCON
  C:8D0DH         PUBLIC        pca_dealy_init
  C:9037H         PUBLIC        _pca_delay_ms
  D:00D0H         PUBLIC        PSW
  -------         PROC          PCA_DEALY_INIT
  C:8D0DH         LINE#         30
  C:8D0DH         LINE#         31
  C:8D0DH         LINE#         32
  C:8D2DH         LINE#         33
  C:8D30H         LINE#         34
  C:8D33H         LINE#         35
  C:8D35H         LINE#         36
  -------         ENDPROC       PCA_DEALY_INIT
  -------         PROC          PCA_DELAY
  -------         DO            
  D:0006H         SYMBOL        temp
  -------         ENDDO         
  C:00A6H         LINE#         43
  C:00A6H         LINE#         44
  C:00A6H         LINE#         47
  C:00B9H         LINE#         49
  C:00BBH         LINE#         50
  C:00BDH         LINE#         52
  C:00C0H         LINE#         53
  C:00C2H         LINE#         54
  -------         ENDPROC       PCA_DELAY
  -------         PROC          _PCA_DELAY_MS
  D:0002H         SYMBOL        ms
  C:9037H         LINE#         62
  C:903BH         LINE#         63
  C:903BH         LINE#         64
  C:904AH         LINE#         65
  -------         ENDPROC       _PCA_DELAY_MS
  -------         ENDMOD        ZF_PCA_DELAY

  -------         MODULE        ZF_GPIO
  C:0000H         SYMBOL        _ICE_DUMMY_
  D:0093H         PUBLIC        P0M1
  D:0092H         PUBLIC        P1M0
  C:8AC7H         PUBLIC        _gpio_pull_set
  D:0096H         PUBLIC        P2M0
  D:0091H         PUBLIC        P1M1
  D:0080H         PUBLIC        P0
  D:00B2H         PUBLIC        P3M0
  D:0095H         PUBLIC        P2M1
  D:0090H         PUBLIC        P1
  D:00B4H         PUBLIC        P4M0
  D:00B1H         PUBLIC        P3M1
  D:00A0H         PUBLIC        P2
  D:00CAH         PUBLIC        P5M0
  D:00B3H         PUBLIC        P4M1
  D:00B0H         PUBLIC        P3
  D:00C9H         PUBLIC        P5M1
  D:00C0H         PUBLIC        P4
BL51 BANKED LINKER/LOCATER V6.22.2.0                                                  07/02/2021  21:25:49  PAGE 40


  D:00C8H         PUBLIC        P5
  D:00A8H         PUBLIC        IE
  D:00B8H         PUBLIC        IP
  D:00D8H         PUBLIC        CCON
  D:0098H         PUBLIC        SCON
  D:0088H         PUBLIC        TCON
  C:5895H         PUBLIC        _gpio_mode
  D:00D0H         PUBLIC        PSW
  D:0094H         PUBLIC        P0M0
  C:8B9CH         SYMBOL        Com005B
  C:8B9CH         SYMBOL        L?0092
  C:8B9CH         SYMBOL        L?0093
  C:8BA5H         SYMBOL        L?0094
  C:8BB4H         SYMBOL        L?0095
  C:8BB4H         SYMBOL        L?0096
  C:8BBCH         SYMBOL        L?0097
  C:8BC7H         SYMBOL        L?0098
  C:8BC7H         SYMBOL        L?0099
  -------         PROC          COM005B
  -------         ENDPROC       COM005B
  -------         PROC          _GPIO_PULL_SET
  D:0007H         SYMBOL        pin
  D:0005H         SYMBOL        pull
  C:8AC7H         LINE#         37
  C:8AC7H         LINE#         38
  C:8AC7H         LINE#         39
  C:8ACFH         LINE#         40
  C:8ACFH         LINE#         41
  C:8AE0H         LINE#         42
  C:8AE2H         LINE#         43
  C:8AE6H         LINE#         44
  C:8AE6H         LINE#         45
  C:8AFDH         LINE#         46
  C:8AFDH         LINE#         47
  -------         ENDPROC       _GPIO_PULL_SET
  -------         PROC          _GPIO_MODE
  D:0007H         SYMBOL        pin
  D:0005H         SYMBOL        mode
  C:5895H         LINE#         58
  C:5895H         LINE#         59
  C:5895H         LINE#         60
  C:5898H         LINE#         61
  C:5898H         LINE#         62
  C:589DH         LINE#         63
  C:589DH         LINE#         64
  C:58A9H         LINE#         65
  C:58ABH         LINE#         66
  C:58ABH         LINE#         67
  C:58B1H         LINE#         68
  C:58B1H         LINE#         69
  C:58BDH         LINE#         70
  C:58BFH         LINE#         71
  C:58BFH         LINE#         72
  C:58C4H         LINE#         73
  C:58C4H         LINE#         74
  C:58D0H         LINE#         75
  C:58D2H         LINE#         76
BL51 BANKED LINKER/LOCATER V6.22.2.0                                                  07/02/2021  21:25:49  PAGE 41


  C:58D2H         LINE#         78
  C:58D7H         LINE#         79
  C:58D7H         LINE#         80
  C:58E3H         LINE#         81
  C:58E5H         LINE#         82
  C:58E5H         LINE#         83
  C:58EBH         LINE#         84
  C:58EBH         LINE#         85
  C:58F7H         LINE#         86
  C:58F9H         LINE#         87
  C:58F9H         LINE#         88
  C:5901H         LINE#         89
  C:5901H         LINE#         90
  C:590DH         LINE#         91
  C:590FH         LINE#         92
  C:590FH         LINE#         93
  C:5910H         LINE#         94
  C:5918H         LINE#         95
  C:5918H         LINE#         96
  C:591DH         LINE#         97
  C:591DH         LINE#         98
  C:592AH         LINE#         99
  C:592DH         LINE#         100
  C:592DH         LINE#         101
  C:5933H         LINE#         102
  C:5933H         LINE#         103
  C:5940H         LINE#         104
  C:5943H         LINE#         105
  C:5943H         LINE#         106
  C:5948H         LINE#         107
  C:5948H         LINE#         108
  C:5955H         LINE#         109
  C:5958H         LINE#         110
  C:5958H         LINE#         112
  C:595DH         LINE#         113
  C:595DH         LINE#         114
  C:596AH         LINE#         115
  C:596DH         LINE#         116
  C:596DH         LINE#         117
  C:5973H         LINE#         118
  C:5973H         LINE#         119
  C:5980H         LINE#         120
  C:5983H         LINE#         121
  C:5983H         LINE#         122
  C:598BH         LINE#         123
  C:598BH         LINE#         124
  C:5998H         LINE#         125
  C:5998H         LINE#         126
  C:5998H         LINE#         127
  C:599BH         LINE#         128
  C:59A3H         LINE#         129
  C:59A3H         LINE#         130
  C:59A8H         LINE#         131
  C:59A8H         LINE#         132
  C:59B4H         LINE#         133
  C:59B8H         LINE#         134
  C:59B8H         LINE#         135
BL51 BANKED LINKER/LOCATER V6.22.2.0                                                  07/02/2021  21:25:49  PAGE 42


  C:59BEH         LINE#         136
  C:59BEH         LINE#         137
  C:59CAH         LINE#         138
  C:59CEH         LINE#         139
  C:59CEH         LINE#         140
  C:59D3H         LINE#         141
  C:59D3H         LINE#         142
  C:59DFH         LINE#         143
  C:59E3H         LINE#         144
  C:59E3H         LINE#         146
  C:59E8H         LINE#         147
  C:59E8H         LINE#         148
  C:59F4H         LINE#         149
  C:59F8H         LINE#         150
  C:59F8H         LINE#         151
  C:59FEH         LINE#         152
  C:59FEH         LINE#         153
  C:5A0AH         LINE#         154
  C:5A0EH         LINE#         155
  C:5A0EH         LINE#         156
  C:5A16H         LINE#         157
  C:5A16H         LINE#         158
  C:5A22H         LINE#         159
  C:5A26H         LINE#         160
  C:5A26H         LINE#         161
  C:5A27H         LINE#         162
  C:5A2FH         LINE#         163
  C:5A2FH         LINE#         164
  C:5A37H         LINE#         165
  C:5A37H         LINE#         166
  C:5A43H         LINE#         167
  C:5A46H         LINE#         168
  C:5A46H         LINE#         169
  C:5A4CH         LINE#         170
  C:5A4CH         LINE#         171
  C:5A58H         LINE#         172
  C:5A5BH         LINE#         173
  C:5A5BH         LINE#         174
  C:5A62H         LINE#         175
  C:5A62H         LINE#         176
  C:5A6EH         LINE#         177
  C:5A71H         LINE#         178
  C:5A71H         LINE#         180
  C:5A7BH         LINE#         181
  C:5A7BH         LINE#         182
  C:5A87H         LINE#         183
  C:5A8AH         LINE#         184
  C:5A8AH         LINE#         185
  C:5A90H         LINE#         186
  C:5A90H         LINE#         187
  C:5A9CH         LINE#         188
  C:5A9FH         LINE#         189
  C:5A9FH         LINE#         190
  C:5AA6H         LINE#         191
  C:5AA6H         LINE#         192
  C:5AB2H         LINE#         193
  C:5AB5H         LINE#         194
BL51 BANKED LINKER/LOCATER V6.22.2.0                                                  07/02/2021  21:25:49  PAGE 43


  C:5AB5H         LINE#         195
  C:5AB5H         LINE#         196
  -------         ENDPROC       _GPIO_MODE
  -------         ENDMOD        ZF_GPIO

  -------         MODULE        ZF_EEPROM
  C:0000H         SYMBOL        _ICE_DUMMY_
  D:0080H         PUBLIC        P0
  D:0090H         PUBLIC        P1
  D:00A0H         PUBLIC        P2
  D:00B0H         PUBLIC        P3
  D:00C0H         PUBLIC        P4
  D:00C8H         PUBLIC        P5
  D:00A8H         PUBLIC        IE
  D:00C5H         PUBLIC        IAP_CMD
  D:00B8H         PUBLIC        IP
  D:00C3H         PUBLIC        IAP_ADDRH
  C:8EFBH         PUBLIC        iap_set_tps
  D:00D8H         PUBLIC        CCON
  D:00C4H         PUBLIC        IAP_ADDRL
  C:9117H         PUBLIC        _iap_erase_page
  D:00F5H         PUBLIC        IAP_TPS
  D:0098H         PUBLIC        SCON
  D:0088H         PUBLIC        TCON
  C:0016H         PUBLIC        iap_idle
  D:00C7H         PUBLIC        IAP_CONTR
  C:8C5EH         PUBLIC        _iap_read_bytes
  C:91A5H         PUBLIC        iap_init
  C:8C00H         PUBLIC        _iap_write_bytes
  D:00C2H         PUBLIC        IAP_DATA
  D:00C6H         PUBLIC        IAP_TRIG
  C:90E1H         PUBLIC        iap_get_cmd_state
  D:00D0H         PUBLIC        PSW
  C:8DABH         SYMBOL        Com0010
  C:8DABH         SYMBOL        L?0017
  C:8DB9H         SYMBOL        L?0018
  C:8DC6H         SYMBOL        L?0019
  C:8DC8H         SYMBOL        L?0020
  -------         PROC          COM0010
  -------         ENDPROC       COM0010
  -------         PROC          IAP_INIT
  C:91A5H         LINE#         29
  C:91A5H         LINE#         30
  C:91A5H         LINE#         31
  C:91A8H         LINE#         32
  -------         ENDPROC       IAP_INIT
  -------         PROC          IAP_IDLE
  C:0016H         LINE#         41
  C:0016H         LINE#         42
  C:0016H         LINE#         43
  C:0019H         LINE#         44
  -------         ENDPROC       IAP_IDLE
  -------         PROC          IAP_GET_CMD_STATE
  C:90E1H         LINE#         54
  C:90E1H         LINE#         55
  C:90E1H         LINE#         56
  C:90EEH         LINE#         57
BL51 BANKED LINKER/LOCATER V6.22.2.0                                                  07/02/2021  21:25:49  PAGE 44


  -------         ENDPROC       IAP_GET_CMD_STATE
  -------         PROC          IAP_SET_TPS
  -------         DO            
  D:0007H         SYMBOL        write_time
  -------         ENDDO         
  C:8EFBH         LINE#         66
  C:8EFBH         LINE#         67
  C:8EFBH         LINE#         69
  C:8F16H         LINE#         70
  C:8F18H         LINE#         71
  -------         ENDPROC       IAP_SET_TPS
  -------         PROC          _IAP_READ_BYTES
  D:0004H         SYMBOL        addr
  X:00F1H         SYMBOL        buf
  X:00F4H         SYMBOL        len
  C:8C5EH         LINE#         84
  C:8C64H         LINE#         85
  C:8C64H         LINE#         86
  C:8C67H         LINE#         88
  C:8C71H         LINE#         89
  C:8C71H         LINE#         90
  C:8C73H         LINE#         91
  C:8C74H         LINE#         92
  C:8C74H         LINE#         93
  C:8C77H         LINE#         94
  C:8C82H         LINE#         95
  C:8C87H         LINE#         96
  C:8C88H         LINE#         97
  C:8C8AH         LINE#         98
  -------         ENDPROC       _IAP_READ_BYTES
  -------         PROC          _IAP_WRITE_BYTES
  D:0004H         SYMBOL        addr
  X:00F1H         SYMBOL        buf
  X:00F4H         SYMBOL        len
  C:8C00H         LINE#         110
  C:8C06H         LINE#         111
  C:8C06H         LINE#         112
  C:8C09H         LINE#         114
  C:8C13H         LINE#         115
  C:8C13H         LINE#         116
  C:8C15H         LINE#         117
  C:8C18H         LINE#         118
  C:8C23H         LINE#         119
  C:8C28H         LINE#         121
  C:8C28H         LINE#         122
  C:8C2BH         LINE#         123
  C:8C2CH         LINE#         124
  C:8C2EH         LINE#         125
  -------         ENDPROC       _IAP_WRITE_BYTES
  -------         PROC          _IAP_ERASE_PAGE
  D:0006H         SYMBOL        addr
  C:9117H         LINE#         136
  C:9117H         LINE#         137
  C:9117H         LINE#         138
  C:911AH         LINE#         139
  C:911CH         LINE#         140
  C:911DH         LINE#         141
BL51 BANKED LINKER/LOCATER V6.22.2.0                                                  07/02/2021  21:25:49  PAGE 45


  C:911DH         LINE#         142
  C:9120H         LINE#         143
  C:9121H         LINE#         144
  -------         ENDPROC       _IAP_ERASE_PAGE
  -------         ENDMOD        ZF_EEPROM

  -------         MODULE        SEEKFREE_FONT
  C:0000H         SYMBOL        _ICE_DUMMY_
  D:0080H         PUBLIC        P0
  D:0090H         PUBLIC        P1
  D:00A0H         PUBLIC        P2
  C:1B44H         PUBLIC        IMG42X32
  D:00B0H         PUBLIC        P3
  C:212CH         PUBLIC        IMG24X24
  D:00C0H         PUBLIC        P4
  C:224CH         PUBLIC        IMG34X24
  D:00C8H         PUBLIC        P5
  C:1A2CH         PUBLIC        IMG16X16
  C:00C6H         PUBLIC        CHINESE_Idx
  C:25E2H         PUBLIC        IMG48X32
  C:17ACH         PUBLIC        F16x32
  D:00A8H         PUBLIC        IE
  D:00B8H         PUBLIC        IP
  D:00D8H         PUBLIC        CCON
  C:0F94H         PUBLIC        F6x8
  D:0098H         PUBLIC        SCON
  D:0088H         PUBLIC        TCON
  C:11BCH         PUBLIC        F8X16
  C:0174H         PUBLIC        CH_16
  C:1B0CH         PUBLIC        IMG_56x8
  D:00D0H         PUBLIC        PSW
  -------         ENDMOD        SEEKFREE_FONT

  -------         MODULE        SEEKFREE_IIC
  C:0000H         SYMBOL        _ICE_DUMMY_
  D:0080H         PUBLIC        P0
  D:0090H         PUBLIC        P1
  D:00A0H         PUBLIC        P2
  D:00B0H         PUBLIC        P3
  X:03A9H         PUBLIC        IIC_ad_main
  D:00C0H         PUBLIC        P4
  D:00C8H         PUBLIC        P5
  X:03AAH         PUBLIC        IIC_num
  D:00A8H         PUBLIC        IE
  C:90B5H         PUBLIC        simiic_start
  C:832DH         PUBLIC        _simiic_read_regs
  C:001AH         PUBLIC        simiic_init
  D:00B8H         PUBLIC        IP
  C:89A7H         PUBLIC        _simiic_read_reg
  D:00D8H         PUBLIC        CCON
  X:03ABH         PUBLIC        IIC_ad_sub
  C:9137H         PUBLIC        simiic_stop
  C:8F36H         PUBLIC        _simiic_write_reg
  D:0098H         PUBLIC        SCON
  B:0090H.4       PUBLIC        P14
  D:0088H         PUBLIC        TCON
  B:0090H.5       PUBLIC        P15
BL51 BANKED LINKER/LOCATER V6.22.2.0                                                  07/02/2021  21:25:49  PAGE 46


  C:8FA6H         PUBLIC        _simiic_sendack
  C:8AFEH         PUBLIC        _read_ch
  C:8D89H         PUBLIC        _send_ch
  C:9021H         SYMBOL        sccb_waitack
  C:9012H         PUBLIC        simiic_delay
  X:03ACH         PUBLIC        IIC_buf
  D:00D0H         PUBLIC        PSW
  C:9083H         SYMBOL        Com0021
  C:9083H         SYMBOL        L?0034
  -------         PROC          COM0021
  -------         ENDPROC       COM0021
  -------         PROC          SIMIIC_INIT
  C:001AH         LINE#         55
  C:001AH         LINE#         56
  C:001AH         LINE#         58
  -------         ENDPROC       SIMIIC_INIT
  C:900BH         SYMBOL        L?0031
  C:900DH         SYMBOL        L?0032
  -------         PROC          L?0030
  -------         ENDPROC       L?0030
  C:900BH         SYMBOL        L?0031
  C:900DH         SYMBOL        L?0032
  -------         PROC          SIMIIC_DELAY
  -------         DO            
  D:0006H         SYMBOL        j
  -------         ENDDO         
  C:9012H         LINE#         66
  C:9012H         LINE#         67
  C:9012H         LINE#         69
  C:9016H         LINE#         70
  C:9020H         LINE#         72
  -------         ENDPROC       SIMIIC_DELAY
  -------         PROC          SIMIIC_START
  C:90B5H         LINE#         76
  C:90B5H         LINE#         77
  C:90B5H         LINE#         79
  C:90B7H         LINE#         80
  C:90B9H         LINE#         81
  C:90BCH         LINE#         82
  C:90BEH         LINE#         83
  C:90C1H         LINE#         84
  C:90C3H         LINE#         86
  -------         ENDPROC       SIMIIC_START
  -------         PROC          SIMIIC_STOP
  C:9137H         LINE#         89
  C:9137H         LINE#         90
  C:9137H         LINE#         92
  C:9139H         LINE#         93
  C:9139H         LINE#         94
  C:9139H         LINE#         95
  C:9139H         LINE#         96
  C:913CH         LINE#         97
  C:913EH         LINE#         98
  -------         ENDPROC       SIMIIC_STOP
  -------         PROC          _SIMIIC_SENDACK
  D:0005H         SYMBOL        ack_dat
  C:8FA6H         LINE#         104
BL51 BANKED LINKER/LOCATER V6.22.2.0                                                  07/02/2021  21:25:49  PAGE 47


  C:8FA8H         LINE#         105
  C:8FA8H         LINE#         106
  C:8FAAH         LINE#         107
  C:8FADH         LINE#         108
  C:8FB4H         LINE#         109
  C:8FB6H         LINE#         111
  C:8FB8H         LINE#         112
  C:8FBBH         LINE#         113
  C:8FBDH         LINE#         114
  -------         ENDPROC       _SIMIIC_SENDACK
  -------         PROC          SCCB_WAITACK
  C:9021H         LINE#         118
  C:9021H         LINE#         119
  C:9021H         LINE#         120
  C:9021H         LINE#         122
  C:9021H         LINE#         124
  C:9021H         LINE#         125
  C:9024H         LINE#         127
  C:9027H         LINE#         128
  C:9027H         LINE#         130
  C:9029H         LINE#         131
  C:902DH         LINE#         132
  C:902DH         LINE#         134
  C:902FH         LINE#         135
  C:9032H         LINE#         136
  C:9036H         LINE#         137
  -------         ENDPROC       SCCB_WAITACK
  -------         PROC          L?0035
  -------         ENDPROC       L?0035
  -------         PROC          _SEND_CH
  D:0005H         SYMBOL        c
  -------         DO            
  D:0003H         SYMBOL        i
  -------         ENDDO         
  C:8D89H         LINE#         143
  C:8D8BH         LINE#         144
  C:8D8BH         LINE#         145
  C:8D8DH         LINE#         146
  C:8D93H         LINE#         147
  C:8D93H         LINE#         148
  C:8D9BH         LINE#         149
  C:8D9DH         LINE#         150
  C:8DA1H         LINE#         151
  C:8DA1H         LINE#         152
  C:8DA1H         LINE#         153
  C:8DA4H         LINE#         154
  C:8DA6H         LINE#         155
  C:8DA8H         LINE#         156
  -------         ENDPROC       _SEND_CH
  -------         PROC          _READ_CH
  D:0005H         SYMBOL        ack_x
  -------         DO            
  D:0002H         SYMBOL        i
  D:0003H         SYMBOL        c
  -------         ENDDO         
  C:8AFEH         LINE#         162
  C:8B00H         LINE#         163
BL51 BANKED LINKER/LOCATER V6.22.2.0                                                  07/02/2021  21:25:49  PAGE 48


  C:8B00H         LINE#         166
  C:8B02H         LINE#         167
  C:8B04H         LINE#         168
  C:8B07H         LINE#         169
  C:8B09H         LINE#         171
  C:8B15H         LINE#         172
  C:8B15H         LINE#         173
  C:8B18H         LINE#         174
  C:8B18H         LINE#         175
  C:8B18H         LINE#         176
  C:8B18H         LINE#         177
  C:8B1BH         LINE#         178
  C:8B1FH         LINE#         179
  C:8B22H         LINE#         180
  C:8B22H         LINE#         181
  C:8B23H         LINE#         182
  C:8B23H         LINE#         183
  C:8B26H         LINE#         185
  C:8B28H         LINE#         186
  C:8B2BH         LINE#         187
  C:8B30H         LINE#         189
  C:8B32H         LINE#         190
  -------         ENDPROC       _READ_CH
  -------         PROC          _SIMIIC_WRITE_REG
  X:0125H         SYMBOL        dev_add
  D:0001H         SYMBOL        reg
  D:0002H         SYMBOL        dat
  C:8F36H         LINE#         201
  C:8F3FH         LINE#         202
  C:8F3FH         LINE#         203
  C:8F42H         LINE#         204
  C:8F45H         LINE#         205
  C:8F4AH         LINE#         206
  C:8F4FH         LINE#         207
  -------         ENDPROC       _SIMIIC_WRITE_REG
  -------         PROC          _SIMIIC_READ_REG
  D:0002H         SYMBOL        dev_add
  X:03D0H         SYMBOL        reg
  D:0001H         SYMBOL        type
  -------         DO            
  D:0005H         SYMBOL        dat
  -------         ENDDO         
  C:89A7H         LINE#         220
  C:89B0H         LINE#         221
  C:89B0H         LINE#         223
  C:89B3H         LINE#         224
  C:89BAH         LINE#         225
  C:89BFH         LINE#         226
  C:89C7H         LINE#         228
  C:89CAH         LINE#         229
  C:89D5H         LINE#         230
  C:89DCH         LINE#         231
  C:89DFH         LINE#         233
  C:89E1H         LINE#         234
  -------         ENDPROC       _SIMIIC_READ_REG
  -------         PROC          _SIMIIC_READ_REGS
  X:0396H         SYMBOL        dev_add
BL51 BANKED LINKER/LOCATER V6.22.2.0                                                  07/02/2021  21:25:49  PAGE 49


  X:0397H         SYMBOL        reg
  X:0398H         SYMBOL        dat_add
  X:039BH         SYMBOL        num
  X:039CH         SYMBOL        type
  C:832DH         LINE#         247
  C:833EH         LINE#         248
  C:833EH         LINE#         249
  C:8341H         LINE#         250
  C:8347H         LINE#         251
  C:834DH         LINE#         252
  C:8358H         LINE#         254
  C:835BH         LINE#         255
  C:8367H         LINE#         256
  C:836FH         LINE#         257
  C:836FH         LINE#         258
  C:8374H         LINE#         259
  C:837EH         LINE#         260
  C:8380H         LINE#         261
  C:8385H         LINE#         262
  -------         ENDPROC       _SIMIIC_READ_REGS
  -------         ENDMOD        SEEKFREE_IIC

  -------         MODULE        SEEKFREE_MPU6050
  C:0000H         SYMBOL        _ICE_DUMMY_
  D:0080H         PUBLIC        P0
  D:0090H         PUBLIC        P1
  D:00A0H         PUBLIC        P2
  D:00B0H         PUBLIC        P3
  D:00C0H         PUBLIC        P4
  D:00C8H         PUBLIC        P5
  C:8DF1H         PUBLIC        _show_set_temp
  C:84E2H         PUBLIC        _fill_picture
  C:3EE5H         PUBLIC        _ROW_OLED_CH16Str
  D:00A8H         PUBLIC        IE
  C:7F4CH         PUBLIC        _OLED_CH16_Str
  C:7D4EH         PUBLIC        _Draw_IMG24x24
  C:8201H         PUBLIC        _OLED_Print
  C:5FB1H         PUBLIC        _Draw_IMG34x24
  D:00B8H         PUBLIC        IP
  C:8926H         PUBLIC        _fill_24x1
  C:7DD0H         PUBLIC        _Draw_IMG48x32
  C:756AH         PUBLIC        OLED_Init
  C:70C9H         PUBLIC        _show_IMG56x8
  C:9165H         PUBLIC        _Write_IIC_Data
  D:00D8H         PUBLIC        CCON
  C:8388H         PUBLIC        _OLED_ShowString
  C:8F52H         PUBLIC        _OLED_WR_Byte
  C:6D9DH         PUBLIC        _OLED_ShowChar
  C:78D3H         PUBLIC        _OLED_P8x16Str
  C:611FH         PUBLIC        _OLED_CH16Str
  D:0098H         PUBLIC        SCON
  D:0088H         PUBLIC        TCON
  C:91ADH         SYMBOL        _?ix1000
  C:8581H         PUBLIC        OLED_On
  C:8BCEH         PUBLIC        _OLED_Set_Pos
  C:7CC8H         PUBLIC        _show_IMG16x16
  C:7A07H         PUBLIC        _fill_24x10
BL51 BANKED LINKER/LOCATER V6.22.2.0                                                  07/02/2021  21:25:49  PAGE 50


  C:7ECFH         PUBLIC        _OLED_P16x32Str
  C:7492H         PUBLIC        _OLED_CH16_Char
  C:76E3H         PUBLIC        _OLED_ShowNum
  C:71C1H         PUBLIC        _show_temp
  C:88E4H         PUBLIC        _oled_pow
  C:915CH         PUBLIC        _Write_IIC_Command
  C:7970H         PUBLIC        _ROW_OLED_Print
  C:86F8H         PUBLIC        OLED_Clear
  C:6527H         PUBLIC        _Draw_IMG42X32
  C:53D0H         PUBLIC        _Draw_IMG42X32_limit
  C:7B28H         PUBLIC        _OLED_DrawBMP
  D:00D0H         PUBLIC        PSW
  C:42C4H         SYMBOL        Com01B9
  C:42C4H         SYMBOL        L?0442
  C:42C4H         SYMBOL        L?0443
  C:42CFH         SYMBOL        L?0444
  C:42D0H         SYMBOL        L?0445
  C:42D3H         SYMBOL        L?0446
  C:42D4H         SYMBOL        L?0447
  C:42DCH         SYMBOL        L?0449
  C:42DCH         SYMBOL        L?0450
  C:42EBH         SYMBOL        L?0451
  C:42EEH         SYMBOL        L?0452
  C:42FBH         SYMBOL        L?0454
  C:42FBH         SYMBOL        L?0455
  C:42FEH         SYMBOL        L?0456
  C:4307H         SYMBOL        L?0460
  C:4307H         SYMBOL        L?0461
  C:430EH         SYMBOL        L?0462
  C:4313H         SYMBOL        L?0463
  C:431AH         SYMBOL        L?0464
  C:431AH         SYMBOL        L?0465
  C:431DH         SYMBOL        L?0466
  C:432DH         SYMBOL        L?0468
  C:433AH         SYMBOL        L?0469
  C:4345H         SYMBOL        L?0470
  C:434EH         SYMBOL        L?0471
  C:434FH         SYMBOL        L?0472
  C:4358H         SYMBOL        L?0473
  C:435CH         SYMBOL        L?0474
  C:4367H         SYMBOL        L?0475
  C:4367H         SYMBOL        L?0476
  C:436AH         SYMBOL        L?0477
  C:4371H         SYMBOL        L?0478
  C:4371H         SYMBOL        L?0479
  C:4379H         SYMBOL        L?0480
  C:4381H         SYMBOL        L?0481
  C:4381H         SYMBOL        L?0482
  C:4384H         SYMBOL        L?0483
  C:4399H         SYMBOL        L?0485
  C:4399H         SYMBOL        L?0486
  C:43A8H         SYMBOL        L?0489
  C:43B5H         SYMBOL        L?0490
  C:43B8H         SYMBOL        L?0491
  C:43C2H         SYMBOL        L?0492
  C:43C2H         SYMBOL        L?0493
  C:43C5H         SYMBOL        L?0494
BL51 BANKED LINKER/LOCATER V6.22.2.0                                                  07/02/2021  21:25:49  PAGE 51


  C:43C7H         SYMBOL        L?0495
  C:43CFH         SYMBOL        L?0498
  C:43CFH         SYMBOL        L?0499
  C:43D2H         SYMBOL        L?0500
  C:43D3H         SYMBOL        L?0501
  C:43DFH         SYMBOL        L?0503
  C:43DFH         SYMBOL        L?0504
  C:43E7H         SYMBOL        L?0505
  C:43EFH         SYMBOL        L?0506
  C:43EFH         SYMBOL        L?0507
  C:4406H         SYMBOL        L?0509
  C:4406H         SYMBOL        L?0510
  C:440EH         SYMBOL        L?0511
  C:4416H         SYMBOL        L?0512
  C:4416H         SYMBOL        L?0513
  C:441EH         SYMBOL        L?0514
  C:441EH         SYMBOL        L?0515
  C:4426H         SYMBOL        L?0516
  C:442EH         SYMBOL        L?0517
  C:443BH         SYMBOL        L?0518
  C:4448H         SYMBOL        L?0519
  C:4455H         SYMBOL        L?0520
  C:4462H         SYMBOL        L?0521
  C:4472H         SYMBOL        L?0522
  C:447DH         SYMBOL        L?0524
  C:447DH         SYMBOL        L?0525
  C:4480H         SYMBOL        L?0526
  C:4489H         SYMBOL        L?0527
  C:4489H         SYMBOL        L?0528
  C:448AH         SYMBOL        L?0529
  C:4492H         SYMBOL        L?0531
  C:4499H         SYMBOL        L?0532
  C:44A0H         SYMBOL        L?0533
  C:44A3H         SYMBOL        L?0534
  C:44ABH         SYMBOL        L?0535
  C:44ABH         SYMBOL        L?0536
  C:44B8H         SYMBOL        L?0543
  C:44B8H         SYMBOL        L?0544
  C:44B9H         SYMBOL        L?0545
  C:44C4H         SYMBOL        L?0546
  C:44CDH         SYMBOL        L?0547
  C:44D8H         SYMBOL        L?0548
  C:44E5H         SYMBOL        L?0549
  C:44EBH         SYMBOL        L?0550
  C:44F3H         SYMBOL        L?0552
  C:44F3H         SYMBOL        L?0553
  C:44F6H         SYMBOL        L?0554
  C:44FDH         SYMBOL        L?0557
  C:450CH         SYMBOL        L?0559
  C:4512H         SYMBOL        L?0560
  C:451AH         SYMBOL        L?0565
  C:451AH         SYMBOL        L?0566
  C:4526H         SYMBOL        L?0567
  C:4527H         SYMBOL        L?0568
  C:4530H         SYMBOL        L?0570
  C:4543H         SYMBOL        L?0571
  C:4543H         SYMBOL        L?0572
BL51 BANKED LINKER/LOCATER V6.22.2.0                                                  07/02/2021  21:25:49  PAGE 52


  C:454AH         SYMBOL        L?0573
  C:454AH         SYMBOL        L?0574
  C:4551H         SYMBOL        L?0575
  C:4551H         SYMBOL        L?0576
  C:4558H         SYMBOL        L?0577
  C:456BH         SYMBOL        L?0578
  C:456BH         SYMBOL        L?0579
  C:4572H         SYMBOL        L?0580
  C:4572H         SYMBOL        L?0581
  C:457DH         SYMBOL        L?0582
  C:458BH         SYMBOL        L?0586
  C:458BH         SYMBOL        L?0587
  C:4593H         SYMBOL        L?0592
  C:4593H         SYMBOL        L?0593
  C:459CH         SYMBOL        L?0594
  C:459CH         SYMBOL        L?0595
  C:45A5H         SYMBOL        L?0596
  C:45A5H         SYMBOL        L?0597
  C:45AEH         SYMBOL        L?0598
  C:45BCH         SYMBOL        L?0599
  C:45BCH         SYMBOL        L?0600
  C:45C5H         SYMBOL        L?0601
  C:45C5H         SYMBOL        L?0602
  C:45CEH         SYMBOL        L?0605
  C:45DBH         SYMBOL        L?0606
  C:45E8H         SYMBOL        L?0607
  C:45E8H         SYMBOL        L?0608
  C:45EFH         SYMBOL        L?0609
  C:45EFH         SYMBOL        L?0610
  C:45F6H         SYMBOL        L?0611
  C:45F6H         SYMBOL        L?0612
  C:45FDH         SYMBOL        L?0613
  C:460AH         SYMBOL        L?0614
  C:4617H         SYMBOL        L?0615
  C:4623H         SYMBOL        L?0616
  C:462EH         SYMBOL        L?0618
  C:462FH         SYMBOL        L?0619
  C:4636H         SYMBOL        L?0622
  C:4636H         SYMBOL        L?0623
  C:463DH         SYMBOL        L?0624
  C:463DH         SYMBOL        L?0625
  C:4644H         SYMBOL        L?0626
  C:4644H         SYMBOL        L?0627
  C:464BH         SYMBOL        L?0628
  C:464BH         SYMBOL        L?0629
  C:4652H         SYMBOL        L?0630
  C:4652H         SYMBOL        L?0631
  C:4659H         SYMBOL        L?0632
  C:4659H         SYMBOL        L?0633
  C:4660H         SYMBOL        L?0634
  C:4660H         SYMBOL        L?0635
  C:4667H         SYMBOL        L?0636
  C:4667H         SYMBOL        L?0637
  C:466EH         SYMBOL        L?0638
  C:4677H         SYMBOL        L?0639
  C:4680H         SYMBOL        L?0640
  -------         PROC          COM01B9
BL51 BANKED LINKER/LOCATER V6.22.2.0                                                  07/02/2021  21:25:49  PAGE 53


  -------         ENDPROC       COM01B9
  -------         PROC          _WRITE_IIC_COMMAND
  D:0007H         SYMBOL        IIC_Command
  C:915CH         LINE#         38
  C:915CH         LINE#         39
  C:915CH         LINE#         41
  -------         ENDPROC       _WRITE_IIC_COMMAND
  -------         PROC          _WRITE_IIC_DATA
  D:0007H         SYMBOL        IIC_Data
  C:9165H         LINE#         51
  C:9165H         LINE#         52
  C:9165H         LINE#         54
  -------         ENDPROC       _WRITE_IIC_DATA
  -------         PROC          _OLED_WR_BYTE
  X:0123H         SYMBOL        dat
  D:0004H         SYMBOL        cmd
  C:8F52H         LINE#         61
  C:8F5AH         LINE#         62
  C:8F5AH         LINE#         63
  C:8F61H         LINE#         64
  C:8F61H         LINE#         65
  C:8F67H         LINE#         66
  C:8F67H         LINE#         68
  C:8F67H         LINE#         69
  C:8F6DH         LINE#         70
  C:8F6DH         LINE#         71
  -------         ENDPROC       _OLED_WR_BYTE
  -------         PROC          _FILL_PICTURE
  X:03C7H         SYMBOL        fill_Data
  -------         DO            
  X:03C8H         SYMBOL        m
  X:03C9H         SYMBOL        n
  -------         ENDDO         
  C:84E2H         LINE#         75
  C:84E7H         LINE#         76
  C:84E7H         LINE#         78
  C:84F6H         LINE#         79
  C:84F6H         LINE#         80
  C:84FCH         LINE#         81
  C:8504H         LINE#         82
  C:850AH         LINE#         83
  C:8517H         LINE#         84
  C:8517H         LINE#         85
  C:8521H         LINE#         86
  C:8529H         LINE#         87
  C:8531H         LINE#         88
  -------         ENDPROC       _FILL_PICTURE
  C:8BF5H         SYMBOL        L?0620
  -------         PROC          _OLED_SET_POS
  X:0122H         SYMBOL        x
  D:0005H         SYMBOL        y
  C:8BCEH         LINE#         91
  C:8BD3H         LINE#         92
  C:8BD3H         LINE#         93
  C:8BDAH         LINE#         94
  C:8BE7H         LINE#         95
  C:8BF5H         LINE#         96
BL51 BANKED LINKER/LOCATER V6.22.2.0                                                  07/02/2021  21:25:49  PAGE 54


  -------         ENDPROC       _OLED_SET_POS
  -------         PROC          OLED_CLEAR
  -------         DO            
  X:00E9H         SYMBOL        i
  X:00EAH         SYMBOL        n
  -------         ENDDO         
  C:86F8H         LINE#         98
  C:86F8H         LINE#         99
  C:86F8H         LINE#         101
  C:8709H         LINE#         102
  C:8709H         LINE#         103
  C:870FH         LINE#         104
  C:8717H         LINE#         105
  C:871DH         LINE#         106
  C:8738H         LINE#         107
  C:8740H         LINE#         108
  -------         ENDPROC       OLED_CLEAR
  -------         PROC          OLED_ON
  -------         DO            
  X:03CEH         SYMBOL        i
  X:03CFH         SYMBOL        n
  -------         ENDDO         
  C:8581H         LINE#         109
  C:8581H         LINE#         110
  C:8581H         LINE#         112
  C:8592H         LINE#         113
  C:8592H         LINE#         114
  C:8598H         LINE#         115
  C:85A0H         LINE#         116
  C:85A6H         LINE#         117
  C:85C6H         LINE#         118
  C:85CEH         LINE#         119
  -------         ENDPROC       OLED_ON
  C:6E52H         SYMBOL        L?0484
  C:6E69H         SYMBOL        L?0496
  C:6E7AH         SYMBOL        L?0539
  C:6E8CH         SYMBOL        L?0561
  C:6E96H         SYMBOL        L?0585
  C:6EA7H         SYMBOL        L?0641
  -------         PROC          _OLED_SHOWCHAR
  X:011BH         SYMBOL        x
  X:011CH         SYMBOL        y
  D:0003H         SYMBOL        chr
  X:011EH         SYMBOL        Char_Size
  -------         DO            
  X:011FH         SYMBOL        c
  X:0120H         SYMBOL        i
  -------         ENDDO         
  C:6D9DH         LINE#         121
  C:6DA8H         LINE#         122
  C:6DA8H         LINE#         123
  C:6DAFH         LINE#         124
  C:6DB6H         LINE#         125
  C:6DBCH         LINE#         126
  C:6DC0H         LINE#         127
  C:6DC3H         LINE#         128
  C:6DC3H         LINE#         130
BL51 BANKED LINKER/LOCATER V6.22.2.0                                                  07/02/2021  21:25:49  PAGE 55


  C:6DC9H         LINE#         131
  C:6DC9H         LINE#         132
  C:6DD1H         LINE#         133
  C:6DD1H         LINE#         134
  C:6DD1H         LINE#         135
  C:6DD9H         LINE#         136
  C:6DE7H         LINE#         137
  C:6DE7H         LINE#         138
  C:6DEFH         LINE#         139
  C:6DFDH         LINE#         140
  C:6DFDH         LINE#         141
  C:6DFDH         LINE#         142
  C:6DFDH         LINE#         143
  C:6E05H         LINE#         144
  C:6E10H         LINE#         146
  C:6E10H         LINE#         147
  C:6E10H         LINE#         149
  C:6E10H         LINE#         150
  C:6E18H         LINE#         151
  C:6E18H         LINE#         152
  C:6E18H         LINE#         153
  C:6E20H         LINE#         154
  C:6E2BH         LINE#         155
  C:6E2BH         LINE#         156
  C:6E33H         LINE#         157
  C:6E3EH         LINE#         158
  C:6E3EH         LINE#         159
  C:6E3EH         LINE#         160
  C:6E3EH         LINE#         161
  C:6E46H         LINE#         162
  C:6E51H         LINE#         164
  C:6E51H         LINE#         165
  C:6E51H         LINE#         166
  -------         ENDPROC       _OLED_SHOWCHAR
  C:795CH         SYMBOL        L?0642
  C:7966H         SYMBOL        L?0643
  -------         PROC          _OLED_P8X16STR
  X:00E9H         SYMBOL        x
  X:00EAH         SYMBOL        y
  X:00EBH         SYMBOL        ch
  -------         DO            
  X:00EEH         SYMBOL        c
  X:00EFH         SYMBOL        i
  X:00F0H         SYMBOL        j
  -------         ENDDO         
  C:78D3H         LINE#         167
  C:78D9H         LINE#         168
  C:78D9H         LINE#         169
  C:78DDH         LINE#         171
  C:78EBH         LINE#         172
  C:78EBH         LINE#         173
  C:78F1H         LINE#         174
  C:78FEH         LINE#         175
  C:7900H         LINE#         176
  C:7904H         LINE#         177
  C:7904H         LINE#         178
  C:790BH         LINE#         179
BL51 BANKED LINKER/LOCATER V6.22.2.0                                                  07/02/2021  21:25:49  PAGE 56


  C:7916H         LINE#         180
  C:7927H         LINE#         181
  C:792FH         LINE#         182
  C:793AH         LINE#         183
  C:794BH         LINE#         184
  C:7952H         LINE#         185
  C:7958H         LINE#         186
  C:795BH         LINE#         187
  -------         ENDPROC       _OLED_P8X16STR
  -------         PROC          _OLED_POW
  X:011BH         SYMBOL        m
  X:011CH         SYMBOL        n
  -------         DO            
  X:011DH         SYMBOL        result
  -------         ENDDO         
  C:88E4H         LINE#         189
  C:88ECH         LINE#         190
  C:88ECH         LINE#         191
  C:88F4H         LINE#         192
  C:891EH         LINE#         193
  C:8925H         LINE#         194
  -------         ENDPROC       _OLED_POW
  -------         PROC          _OLED_SHOWNUM
  X:0110H         SYMBOL        x
  X:0111H         SYMBOL        y
  X:0112H         SYMBOL        num
  X:0116H         SYMBOL        len
  X:0117H         SYMBOL        size2
  -------         DO            
  X:0118H         SYMBOL        t
  X:0119H         SYMBOL        temp
  X:011AH         SYMBOL        enshow
  -------         ENDDO         
  C:76E3H         LINE#         201
  C:76EBH         LINE#         202
  C:76EBH         LINE#         204
  C:76F0H         LINE#         205
  C:7705H         LINE#         206
  C:7705H         LINE#         207
  C:772FH         LINE#         208
  C:7742H         LINE#         209
  C:7742H         LINE#         210
  C:7746H         LINE#         211
  C:7746H         LINE#         212
  C:7759H         LINE#         213
  C:775BH         LINE#         214
  C:7761H         LINE#         216
  C:7761H         LINE#         217
  C:7781H         LINE#         218
  C:778AH         LINE#         219
  -------         ENDPROC       _OLED_SHOWNUM
  -------         PROC          _OLED_SHOWSTRING
  X:0110H         SYMBOL        x
  X:0111H         SYMBOL        y
  X:0112H         SYMBOL        chr
  X:0115H         SYMBOL        Char_Size
  -------         DO            
BL51 BANKED LINKER/LOCATER V6.22.2.0                                                  07/02/2021  21:25:49  PAGE 57


  X:0116H         SYMBOL        j
  -------         ENDDO         
  C:8388H         LINE#         221
  C:838EH         LINE#         222
  C:838EH         LINE#         223
  C:8393H         LINE#         224
  C:83A2H         LINE#         225
  C:83B5H         LINE#         226
  C:83C0H         LINE#         227
  C:83C0H         LINE#         228
  C:83C4H         LINE#         229
  C:83C6H         LINE#         231
  C:83C6H         LINE#         232
  C:83CAH         LINE#         233
  C:83CAH         LINE#         234
  C:83D7H         LINE#         235
  C:83D7H         LINE#         236
  C:83DAH         LINE#         237
  C:83DAH         LINE#         238
  C:83E0H         LINE#         239
  C:83E2H         LINE#         240
  -------         ENDPROC       _OLED_SHOWSTRING
  -------         PROC          _OLED_DRAWBMP
  X:036AH         SYMBOL        x0
  D:0005H         SYMBOL        y0
  X:036CH         SYMBOL        x1
  X:036DH         SYMBOL        y1
  X:036EH         SYMBOL        BMP
  -------         DO            
  X:0371H         SYMBOL        j
  X:0373H         SYMBOL        x
  X:0374H         SYMBOL        y
  -------         ENDDO         
  C:7B28H         LINE#         243
  C:7B32H         LINE#         244
  C:7B32H         LINE#         245
  C:7B39H         LINE#         248
  C:7B4AH         LINE#         249
  C:7B58H         LINE#         250
  C:7B6BH         LINE#         251
  C:7B6BH         LINE#         252
  C:7B73H         LINE#         253
  C:7B88H         LINE#         254
  C:7B88H         LINE#         255
  C:7BA4H         LINE#         256
  C:7BACH         LINE#         257
  C:7BB4H         LINE#         258
  -------         ENDPROC       _OLED_DRAWBMP
  C:75ECH         SYMBOL        L?0453
  C:7600H         SYMBOL        L?0458
  C:760BH         SYMBOL        L?0459
  C:7616H         SYMBOL        L?0487
  C:7621H         SYMBOL        L?0540
  -------         PROC          OLED_INIT
  C:756AH         LINE#         261
  C:756AH         LINE#         262
  C:756AH         LINE#         264
BL51 BANKED LINKER/LOCATER V6.22.2.0                                                  07/02/2021  21:25:49  PAGE 58


  C:756CH         LINE#         266
  C:7575H         LINE#         267
  C:7577H         LINE#         269
  C:7577H         LINE#         271
  C:7580H         LINE#         272
  C:7589H         LINE#         274
  C:758BH         LINE#         275
  C:758BH         LINE#         277
  C:7594H         LINE#         279
  C:7596H         LINE#         280
  C:759FH         LINE#         282
  C:75A1H         LINE#         283
  C:75A9H         LINE#         285
  C:75ABH         LINE#         286
  C:75B4H         LINE#         288
  C:75B6H         LINE#         289
  C:75BFH         LINE#         291
  C:75C1H         LINE#         292
  C:75CAH         LINE#         294
  C:75CCH         LINE#         295
  C:75D5H         LINE#         297
  C:75D7H         LINE#         298
  C:75E0H         LINE#         300
  C:75E9H         LINE#         301
  C:75ECH         LINE#         302
  -------         ENDPROC       OLED_INIT
  -------         PROC          _OLED_P16X32STR
  X:00F4H         SYMBOL        x
  X:00F5H         SYMBOL        y
  D:0003H         SYMBOL        N
  -------         DO            
  X:00F6H         SYMBOL        i
  X:00F7H         SYMBOL        adder
  X:00F9H         SYMBOL        yCount
  -------         ENDDO         
  C:7ECFH         LINE#         308
  C:7ED2H         LINE#         309
  C:7ED2H         LINE#         310
  C:7ED5H         LINE#         311
  C:7EDFH         LINE#         313
  C:7EE4H         LINE#         314
  C:7EEBH         LINE#         315
  C:7EEBH         LINE#         316
  C:7EF6H         LINE#         317
  C:7F03H         LINE#         318
  C:7F03H         LINE#         319
  C:7F14H         LINE#         320
  C:7F22H         LINE#         321
  C:7F2AH         LINE#         322
  C:7F30H         LINE#         323
  C:7F4BH         LINE#         325
  -------         ENDPROC       _OLED_P16X32STR
  -------         PROC          _DRAW_IMG24X24
  X:00F4H         SYMBOL        x
  X:00F5H         SYMBOL        y
  D:0003H         SYMBOL        N
  -------         DO            
BL51 BANKED LINKER/LOCATER V6.22.2.0                                                  07/02/2021  21:25:49  PAGE 59


  X:00F6H         SYMBOL        i
  X:00F7H         SYMBOL        adder
  X:00F9H         SYMBOL        yCount
  -------         ENDDO         
  C:7D4EH         LINE#         328
  C:7D51H         LINE#         329
  C:7D51H         LINE#         330
  C:7D54H         LINE#         331
  C:7D5EH         LINE#         333
  C:7D63H         LINE#         334
  C:7D6AH         LINE#         335
  C:7D6AH         LINE#         336
  C:7D75H         LINE#         337
  C:7D87H         LINE#         338
  C:7D87H         LINE#         339
  C:7D98H         LINE#         340
  C:7DA6H         LINE#         341
  C:7DAEH         LINE#         342
  C:7DB4H         LINE#         343
  C:7DCFH         LINE#         345
  -------         ENDPROC       _DRAW_IMG24X24
  -------         PROC          _DRAW_IMG48X32
  X:00F4H         SYMBOL        x
  X:00F5H         SYMBOL        y
  D:0003H         SYMBOL        N
  -------         DO            
  X:00F6H         SYMBOL        i
  X:00F7H         SYMBOL        adder
  X:00F9H         SYMBOL        yCount
  -------         ENDDO         
  C:7DD0H         LINE#         346
  C:7DD3H         LINE#         347
  C:7DD3H         LINE#         348
  C:7DD6H         LINE#         349
  C:7DE0H         LINE#         351
  C:7DE5H         LINE#         352
  C:7DECH         LINE#         353
  C:7DECH         LINE#         354
  C:7DF7H         LINE#         355
  C:7E09H         LINE#         356
  C:7E09H         LINE#         357
  C:7E1AH         LINE#         358
  C:7E28H         LINE#         359
  C:7E30H         LINE#         360
  C:7E36H         LINE#         361
  C:7E51H         LINE#         363
  -------         ENDPROC       _DRAW_IMG48X32
  -------         PROC          _FILL_24X1
  X:03BDH         SYMBOL        x
  X:03BEH         SYMBOL        y
  -------         DO            
  X:03BFH         SYMBOL        yCount
  -------         ENDDO         
  C:8926H         LINE#         364
  C:892BH         LINE#         365
  C:892BH         LINE#         367
  C:8930H         LINE#         368
BL51 BANKED LINKER/LOCATER V6.22.2.0                                                  07/02/2021  21:25:49  PAGE 60


  C:8930H         LINE#         369
  C:893BH         LINE#         370
  C:8941H         LINE#         372
  C:8947H         LINE#         373
  C:8966H         LINE#         374
  -------         ENDPROC       _FILL_24X1
  -------         PROC          _FILL_24X10
  D:0007H         SYMBOL        x
  X:03AFH         SYMBOL        y
  -------         DO            
  X:03B0H         SYMBOL        i
  X:03B1H         SYMBOL        adder
  X:03B3H         SYMBOL        yCount
  -------         ENDDO         
  C:7A07H         LINE#         376
  C:7A0CH         LINE#         377
  C:7A0CH         LINE#         378
  C:7A0CH         LINE#         379
  C:7A10H         LINE#         381
  C:7A19H         LINE#         382
  C:7A19H         LINE#         384
  C:7A19H         LINE#         385
  C:7A2EH         LINE#         386
  C:7A2EH         LINE#         387
  C:7A36H         LINE#         388
  C:7A3DH         LINE#         389
  C:7A3DH         LINE#         390
  C:7A46H         LINE#         391
  C:7A58H         LINE#         392
  C:7A58H         LINE#         393
  C:7A5EH         LINE#         394
  C:7A6CH         LINE#         395
  C:7A74H         LINE#         396
  C:7A7AH         LINE#         397
  C:7A9AH         LINE#         398
  C:7A9AH         LINE#         399
  C:7A9AH         LINE#         400
  C:7A9AH         LINE#         402
  C:7A9AH         LINE#         403
  -------         ENDPROC       _FILL_24X10
  C:60FDH         SYMBOL        L?0555
  C:610AH         SYMBOL        L?0588
  C:6114H         SYMBOL        L?0603
  -------         PROC          _DRAW_IMG34X24
  X:00ECH         SYMBOL        x
  X:00EDH         SYMBOL        y
  X:00EEH         SYMBOL        N
  -------         DO            
  X:00EFH         SYMBOL        i
  X:00F0H         SYMBOL        adder
  X:00F2H         SYMBOL        yCount
  -------         ENDDO         
  C:5FB1H         LINE#         463
  C:5FBEH         LINE#         464
  C:5FBEH         LINE#         465
  C:5FC1H         LINE#         468
  C:5FD0H         LINE#         469
BL51 BANKED LINKER/LOCATER V6.22.2.0                                                  07/02/2021  21:25:49  PAGE 61


  C:5FD0H         LINE#         470
  C:5FDAH         LINE#         471
  C:5FDAH         LINE#         472
  C:5FE3H         LINE#         473
  C:5FE3H         LINE#         474
  C:5FE3H         LINE#         475
  C:5FF7H         LINE#         476
  C:5FF7H         LINE#         477
  C:5FFDH         LINE#         478
  C:6005H         LINE#         479
  C:600AH         LINE#         480
  C:600AH         LINE#         481
  C:6018H         LINE#         482
  C:6018H         LINE#         483
  C:6020H         LINE#         484
  C:6020H         LINE#         485
  C:6030H         LINE#         486
  C:6037H         LINE#         487
  C:603AH         LINE#         488
  C:603AH         LINE#         489
  C:6044H         LINE#         491
  C:605EH         LINE#         492
  C:605EH         LINE#         493
  C:6064H         LINE#         494
  C:606CH         LINE#         495
  C:6071H         LINE#         496
  C:607AH         LINE#         497
  C:607AH         LINE#         498
  C:6088H         LINE#         499
  C:6088H         LINE#         500
  C:6099H         LINE#         501
  C:6099H         LINE#         502
  C:60A3H         LINE#         503
  C:60AAH         LINE#         504
  C:60ADH         LINE#         505
  C:60ADH         LINE#         506
  C:60B8H         LINE#         507
  C:60C9H         LINE#         508
  C:60C9H         LINE#         509
  C:60D2H         LINE#         510
  C:60DDH         LINE#         511
  C:60E2H         LINE#         512
  C:60EFH         LINE#         513
  C:60EFH         LINE#         514
  C:60FCH         LINE#         515
  C:60FCH         LINE#         518
  -------         ENDPROC       _DRAW_IMG34X24
  C:6659H         SYMBOL        L?0556
  C:6666H         SYMBOL        L?0589
  C:6670H         SYMBOL        L?0604
  -------         PROC          _DRAW_IMG42X32
  X:0380H         SYMBOL        x
  X:0381H         SYMBOL        y
  X:0382H         SYMBOL        N
  -------         DO            
  X:0383H         SYMBOL        i
  X:0384H         SYMBOL        adder
BL51 BANKED LINKER/LOCATER V6.22.2.0                                                  07/02/2021  21:25:49  PAGE 62


  X:0386H         SYMBOL        yCount
  -------         ENDDO         
  C:6527H         LINE#         519
  C:6534H         LINE#         520
  C:6534H         LINE#         521
  C:6537H         LINE#         524
  C:6541H         LINE#         525
  C:6541H         LINE#         526
  C:654BH         LINE#         527
  C:654BH         LINE#         528
  C:6554H         LINE#         529
  C:6554H         LINE#         530
  C:6554H         LINE#         531
  C:6563H         LINE#         532
  C:6563H         LINE#         533
  C:6566H         LINE#         534
  C:656EH         LINE#         535
  C:6573H         LINE#         536
  C:6573H         LINE#         537
  C:6581H         LINE#         538
  C:6581H         LINE#         539
  C:6589H         LINE#         540
  C:6589H         LINE#         541
  C:6593H         LINE#         542
  C:659AH         LINE#         543
  C:659DH         LINE#         544
  C:659DH         LINE#         545
  C:65A7H         LINE#         547
  C:65C1H         LINE#         548
  C:65C1H         LINE#         549
  C:65C4H         LINE#         550
  C:65CCH         LINE#         551
  C:65D1H         LINE#         552
  C:65DAH         LINE#         553
  C:65DAH         LINE#         554
  C:65E8H         LINE#         555
  C:65E8H         LINE#         556
  C:65F3H         LINE#         557
  C:65F3H         LINE#         558
  C:6602H         LINE#         559
  C:6609H         LINE#         560
  C:660CH         LINE#         561
  C:660CH         LINE#         562
  C:6617H         LINE#         563
  C:6628H         LINE#         564
  C:6628H         LINE#         565
  C:662EH         LINE#         566
  C:6639H         LINE#         567
  C:663EH         LINE#         568
  C:664BH         LINE#         569
  C:664BH         LINE#         570
  C:6658H         LINE#         571
  C:6658H         LINE#         574
  -------         ENDPROC       _DRAW_IMG42X32
  -------         PROC          _SHOW_IMG16X16
  X:00F0H         SYMBOL        x
  X:00F1H         SYMBOL        y
BL51 BANKED LINKER/LOCATER V6.22.2.0                                                  07/02/2021  21:25:49  PAGE 63


  X:00F2H         SYMBOL        N
  -------         DO            
  X:00F3H         SYMBOL        i
  X:00F4H         SYMBOL        yCount
  X:00F6H         SYMBOL        adder
  -------         ENDDO         
  C:7CC8H         LINE#         575
  C:7CD5H         LINE#         576
  C:7CD5H         LINE#         577
  C:7CDAH         LINE#         579
  C:7CDEH         LINE#         580
  C:7CE1H         LINE#         581
  C:7CE8H         LINE#         582
  C:7CE8H         LINE#         583
  C:7CF3H         LINE#         584
  C:7D00H         LINE#         585
  C:7D00H         LINE#         586
  C:7D1EH         LINE#         587
  C:7D24H         LINE#         588
  C:7D2CH         LINE#         589
  C:7D32H         LINE#         590
  C:7D4DH         LINE#         592
  -------         ENDPROC       _SHOW_IMG16X16
  C:7287H         SYMBOL        L?0558
  C:729EH         SYMBOL        L?0562
  C:72ABH         SYMBOL        L?0621
  -------         PROC          _SHOW_TEMP
  X:00F0H         SYMBOL        x
  D:0002H         SYMBOL        temp
  -------         DO            
  X:00F1H         SYMBOL        temp_data
  -------         ENDDO         
  C:71C1H         LINE#         593
  C:71CAH         LINE#         594
  C:71CAH         LINE#         596
  C:71CFH         LINE#         597
  C:71D4H         LINE#         598
  C:71DBH         LINE#         600
  C:71E4H         LINE#         601
  C:71E4H         LINE#         602
  C:720DH         LINE#         603
  C:720DH         LINE#         606
  C:721EH         LINE#         607
  C:721EH         LINE#         608
  C:7223H         LINE#         609
  C:7223H         LINE#         610
  C:7225H         LINE#         612
  C:7225H         LINE#         613
  C:722AH         LINE#         614
  C:7232H         LINE#         615
  C:7242H         LINE#         616
  C:7247H         LINE#         617
  C:7247H         LINE#         619
  C:7249H         LINE#         621
  C:7249H         LINE#         622
  C:7254H         LINE#         623
  C:7265H         LINE#         624
BL51 BANKED LINKER/LOCATER V6.22.2.0                                                  07/02/2021  21:25:49  PAGE 64


  C:7265H         LINE#         626
  C:726BH         LINE#         627
  C:726DH         LINE#         629
  C:726DH         LINE#         631
  C:7277H         LINE#         632
  C:7277H         LINE#         634
  C:7277H         LINE#         635
  C:7277H         LINE#         637
  C:7277H         LINE#         638
  C:7281H         LINE#         639
  C:7286H         LINE#         640
  C:7286H         LINE#         643
  -------         ENDPROC       _SHOW_TEMP
  -------         PROC          _SHOW_SET_TEMP
  D:0007H         SYMBOL        x
  D:0005H         SYMBOL        y
  D:0002H         SYMBOL        temp
  C:8DF1H         LINE#         645
  C:8DF1H         LINE#         646
  C:8DF1H         LINE#         647
  -------         ENDPROC       _SHOW_SET_TEMP
  C:71B9H         SYMBOL        L?0617
  -------         PROC          _SHOW_IMG56X8
  X:00F0H         SYMBOL        x
  X:00F1H         SYMBOL        y
  X:00F2H         SYMBOL        percent
  -------         DO            
  X:00F3H         SYMBOL        j
  X:00F4H         SYMBOL        nember_data
  -------         ENDDO         
  C:70C9H         LINE#         654
  C:70CFH         LINE#         655
  C:70CFH         LINE#         658
  C:70DFH         LINE#         659
  C:70ECH         LINE#         660
  C:70F5H         LINE#         661
  C:70F8H         LINE#         662
  C:710BH         LINE#         663
  C:710BH         LINE#         664
  C:711FH         LINE#         665
  C:711FH         LINE#         666
  C:7134H         LINE#         667
  C:7134H         LINE#         668
  C:7136H         LINE#         669
  C:7138H         LINE#         671
  C:7138H         LINE#         672
  C:713CH         LINE#         673
  C:713CH         LINE#         674
  C:713EH         LINE#         676
  C:713EH         LINE#         677
  C:714BH         LINE#         678
  C:714BH         LINE#         679
  C:7153H         LINE#         680
  C:716CH         LINE#         681
  C:7184H         LINE#         682
  C:719FH         LINE#         683
  C:71B9H         LINE#         685
BL51 BANKED LINKER/LOCATER V6.22.2.0                                                  07/02/2021  21:25:49  PAGE 65


  -------         ENDPROC       _SHOW_IMG56X8
  C:6250H         SYMBOL        L?0541
  C:6262H         SYMBOL        L?0569
  C:626EH         SYMBOL        L?0590
  -------         PROC          _OLED_CH16STR
  X:0375H         SYMBOL        x
  X:0376H         SYMBOL        y
  X:0377H         SYMBOL        ch
  -------         DO            
  X:037AH         SYMBOL        str_offset
  X:037BH         SYMBOL        ii
  X:037CH         SYMBOL        adder
  -------         ENDDO         
  C:611FH         LINE#         690
  C:6125H         LINE#         691
  C:6125H         LINE#         692
  C:6125H         LINE#         693
  C:612FH         LINE#         695
  C:6140H         LINE#         696
  C:6140H         LINE#         697
  C:6145H         LINE#         698
  C:614FH         LINE#         702
  C:6157H         LINE#         703
  C:6157H         LINE#         704
  C:616AH         LINE#         705
  C:616AH         LINE#         706
  C:617AH         LINE#         707
  C:617AH         LINE#         708
  C:6180H         LINE#         709
  C:6182H         LINE#         710
  C:6182H         LINE#         711
  C:6182H         LINE#         712
  C:6189H         LINE#         713
  C:618BH         LINE#         714
  C:6198H         LINE#         715
  C:6198H         LINE#         716
  C:619BH         LINE#         717
  C:619BH         LINE#         718
  C:619EH         LINE#         719
  C:61A6H         LINE#         720
  C:61A6H         LINE#         721
  C:61A9H         LINE#         722
  C:61B6H         LINE#         723
  C:61B6H         LINE#         724
  C:61C2H         LINE#         725
  C:61D0H         LINE#         726
  C:61D8H         LINE#         727
  C:61D8H         LINE#         728
  C:61E3H         LINE#         729
  C:61E3H         LINE#         730
  C:61EFH         LINE#         731
  C:61FDH         LINE#         732
  C:6205H         LINE#         733
  C:6205H         LINE#         735
  C:6205H         LINE#         736
  C:620BH         LINE#         737
  C:6216H         LINE#         738
BL51 BANKED LINKER/LOCATER V6.22.2.0                                                  07/02/2021  21:25:49  PAGE 66


  C:6223H         LINE#         739
  C:6223H         LINE#         740
  C:6226H         LINE#         741
  C:622BH         LINE#         742
  C:622BH         LINE#         743
  C:6236H         LINE#         744
  C:6236H         LINE#         745
  C:6239H         LINE#         746
  C:623EH         LINE#         747
  C:623EH         LINE#         748
  C:6245H         LINE#         749
  C:624CH         LINE#         750
  C:624FH         LINE#         751
  -------         ENDPROC       _OLED_CH16STR
  -------         PROC          _OLED_PRINT
  X:0352H         SYMBOL        x
  X:0353H         SYMBOL        y
  X:0354H         SYMBOL        ch
  -------         DO            
  X:0357H         SYMBOL        buff
  X:035AH         SYMBOL        ii
  -------         ENDDO         
  C:8201H         LINE#         753
  C:8207H         LINE#         754
  C:8207H         LINE#         756
  C:8211H         LINE#         758
  C:821CH         LINE#         759
  C:821CH         LINE#         760
  C:8224H         LINE#         761
  C:8224H         LINE#         762
  C:822AH         LINE#         763
  C:8230H         LINE#         764
  C:8230H         LINE#         765
  C:8236H         LINE#         766
  C:823CH         LINE#         767
  C:8241H         LINE#         768
  C:8243H         LINE#         770
  C:8243H         LINE#         771
  C:824CH         LINE#         772
  C:824CH         LINE#         773
  C:8252H         LINE#         774
  C:8258H         LINE#         775
  C:8263H         LINE#         776
  C:8263H         LINE#         777
  C:8266H         LINE#         778
  -------         ENDPROC       _OLED_PRINT
  C:5601H         SYMBOL        L?0502
  C:5612H         SYMBOL        L?0523
  C:561CH         SYMBOL        L?0530
  C:562FH         SYMBOL        L?0537
  C:563CH         SYMBOL        L?0563
  C:5646H         SYMBOL        L?0591
  C:5652H         SYMBOL        L?0644
  -------         PROC          _DRAW_IMG42X32_LIMIT
  X:00EDH         SYMBOL        x
  X:00EEH         SYMBOL        y
  X:00EFH         SYMBOL        N
BL51 BANKED LINKER/LOCATER V6.22.2.0                                                  07/02/2021  21:25:49  PAGE 67


  X:00F0H         SYMBOL        mode
  -------         DO            
  X:00F1H         SYMBOL        i
  X:00F2H         SYMBOL        adder
  X:00F4H         SYMBOL        y_now
  X:00F5H         SYMBOL        yCount
  -------         ENDDO         
  C:53D0H         LINE#         779
  C:53D6H         LINE#         780
  C:53D6H         LINE#         781
  C:53DBH         LINE#         783
  C:53DFH         LINE#         785
  C:53E8H         LINE#         786
  C:53E8H         LINE#         787
  C:53F7H         LINE#         788
  C:53F7H         LINE#         789
  C:53FAH         LINE#         790
  C:5400H         LINE#         791
  C:5403H         LINE#         792
  C:5403H         LINE#         793
  C:5403H         LINE#         794
  C:540BH         LINE#         795
  C:540BH         LINE#         796
  C:540EH         LINE#         797
  C:5416H         LINE#         798
  C:541BH         LINE#         799
  C:541BH         LINE#         800
  C:5429H         LINE#         801
  C:5429H         LINE#         802
  C:5431H         LINE#         803
  C:5431H         LINE#         804
  C:543BH         LINE#         805
  C:5441H         LINE#         806
  C:5444H         LINE#         807
  C:5444H         LINE#         808
  C:544EH         LINE#         810
  C:5465H         LINE#         811
  C:5465H         LINE#         812
  C:5468H         LINE#         813
  C:5470H         LINE#         814
  C:5475H         LINE#         815
  C:547BH         LINE#         816
  C:547BH         LINE#         817
  C:5489H         LINE#         818
  C:5489H         LINE#         819
  C:5497H         LINE#         820
  C:5497H         LINE#         821
  C:549AH         LINE#         822
  C:549FH         LINE#         823
  C:54A2H         LINE#         824
  C:54A2H         LINE#         825
  C:54A2H         LINE#         826
  C:54B8H         LINE#         827
  C:54B8H         LINE#         828
  C:54BBH         LINE#         829
  C:54C3H         LINE#         830
  C:54C8H         LINE#         831
BL51 BANKED LINKER/LOCATER V6.22.2.0                                                  07/02/2021  21:25:49  PAGE 68


  C:54D2H         LINE#         832
  C:54D2H         LINE#         833
  C:54E0H         LINE#         834
  C:54E0H         LINE#         835
  C:54E0H         LINE#         836
  C:54EBH         LINE#         837
  C:54EBH         LINE#         838
  C:54EEH         LINE#         839
  C:54FCH         LINE#         840
  C:54FCH         LINE#         841
  C:5506H         LINE#         842
  C:5523H         LINE#         843
  C:553EH         LINE#         844
  C:553EH         LINE#         845
  C:553EH         LINE#         847
  C:5546H         LINE#         848
  C:5546H         LINE#         849
  C:5549H         LINE#         850
  C:5551H         LINE#         851
  C:5556H         LINE#         852
  C:5559H         LINE#         853
  C:5564H         LINE#         854
  C:5564H         LINE#         855
  C:556BH         LINE#         856
  C:556BH         LINE#         857
  C:556FH         LINE#         858
  C:5572H         LINE#         859
  C:5572H         LINE#         860
  C:557DH         LINE#         861
  C:5587H         LINE#         862
  C:5587H         LINE#         863
  C:558AH         LINE#         864
  C:5592H         LINE#         865
  C:5597H         LINE#         866
  C:5597H         LINE#         867
  C:55A5H         LINE#         868
  C:55A5H         LINE#         869
  C:55B3H         LINE#         870
  C:55B3H         LINE#         871
  C:55BBH         LINE#         872
  C:55C3H         LINE#         873
  C:55DAH         LINE#         874
  C:55DAH         LINE#         875
  C:55DAH         LINE#         876
  C:55E2H         LINE#         877
  C:55E2H         LINE#         878
  C:55E5H         LINE#         879
  C:55EDH         LINE#         880
  C:55F2H         LINE#         881
  C:55F5H         LINE#         882
  C:5600H         LINE#         883
  C:5600H         LINE#         884
  C:5600H         LINE#         886
  -------         ENDPROC       _DRAW_IMG42X32_LIMIT
  C:4195H         SYMBOL        L?0440
  C:41D3H         SYMBOL        L?0448
  C:4213H         SYMBOL        L?0457
BL51 BANKED LINKER/LOCATER V6.22.2.0                                                  07/02/2021  21:25:49  PAGE 69


  C:4237H         SYMBOL        L?0467
  C:424AH         SYMBOL        L?0488
  C:425CH         SYMBOL        L?0497
  C:426DH         SYMBOL        L?0508
  C:427FH         SYMBOL        L?0538
  C:428CH         SYMBOL        L?0542
  C:429DH         SYMBOL        L?0564
  C:42A7H         SYMBOL        L?0583
  C:42B2H         SYMBOL        L?0584
  -------         PROC          _ROW_OLED_CH16STR
  X:0338H         SYMBOL        x
  X:0339H         SYMBOL        y
  X:033AH         SYMBOL        ch
  -------         DO            
  X:033DH         SYMBOL        yCount
  X:033FH         SYMBOL        str_offset
  X:0340H         SYMBOL        ii
  X:0341H         SYMBOL        adder
  X:0345H         SYMBOL        i
  -------         ENDDO         
  C:3EE5H         LINE#         890
  C:3EEBH         LINE#         891
  C:3EEBH         LINE#         893
  C:3EF2H         LINE#         894
  C:3EFAH         LINE#         896
  C:3EFFH         LINE#         897
  C:3F10H         LINE#         898
  C:3F10H         LINE#         899
  C:3F15H         LINE#         900
  C:3F1FH         LINE#         904
  C:3F27H         LINE#         905
  C:3F27H         LINE#         906
  C:3F3AH         LINE#         907
  C:3F3AH         LINE#         908
  C:3F4AH         LINE#         909
  C:3F4AH         LINE#         910
  C:3F50H         LINE#         911
  C:3F52H         LINE#         912
  C:3F52H         LINE#         913
  C:3F52H         LINE#         914
  C:3F59H         LINE#         915
  C:3F5BH         LINE#         916
  C:3F6CH         LINE#         917
  C:3F6EH         LINE#         918
  C:3F72H         LINE#         919
  C:3F72H         LINE#         922
  C:3F80H         LINE#         923
  C:3F80H         LINE#         924
  C:3F83H         LINE#         926
  C:3F88H         LINE#         927
  C:3F88H         LINE#         928
  C:3F93H         LINE#         930
  C:3F96H         LINE#         931
  C:3FA6H         LINE#         932
  C:3FA6H         LINE#         933
  C:3FA6H         LINE#         934
  C:3FA9H         LINE#         935
BL51 BANKED LINKER/LOCATER V6.22.2.0                                                  07/02/2021  21:25:49  PAGE 70


  C:3FAEH         LINE#         937
  C:3FAEH         LINE#         939
  C:3FAEH         LINE#         940
  C:3FB4H         LINE#         942
  C:3FBEH         LINE#         943
  C:3FCEH         LINE#         944
  C:3FCEH         LINE#         945
  C:3FD4H         LINE#         946
  C:3FD7H         LINE#         947
  C:3FDCH         LINE#         949
  C:3FDCH         LINE#         950
  C:3FDCH         LINE#         951
  C:3FEEH         LINE#         952
  C:3FEEH         LINE#         954
  C:3FEEH         LINE#         955
  C:3FF2H         LINE#         956
  C:3FF2H         LINE#         957
  C:3FF2H         LINE#         958
  C:3FF7H         LINE#         959
  C:3FF7H         LINE#         960
  C:3FF7H         LINE#         961
  C:4003H         LINE#         962
  C:4003H         LINE#         963
  C:4003H         LINE#         964
  C:4006H         LINE#         965
  C:400BH         LINE#         966
  C:400BH         LINE#         967
  C:4016H         LINE#         968
  C:4016H         LINE#         969
  C:4016H         LINE#         970
  C:4019H         LINE#         971
  C:401EH         LINE#         972
  C:401EH         LINE#         974
  C:401EH         LINE#         975
  C:401EH         LINE#         976
  C:401EH         LINE#         977
  C:402AH         LINE#         978
  C:402AH         LINE#         979
  C:402DH         LINE#         980
  C:4032H         LINE#         981
  C:4032H         LINE#         982
  C:403DH         LINE#         983
  C:403DH         LINE#         984
  C:403DH         LINE#         985
  C:4042H         LINE#         986
  C:4042H         LINE#         987
  C:4042H         LINE#         988
  C:404EH         LINE#         989
  C:404EH         LINE#         990
  C:4056H         LINE#         991
  C:405BH         LINE#         992
  C:405BH         LINE#         993
  C:405EH         LINE#         994
  C:405EH         LINE#         995
  C:405EH         LINE#         996
  C:4069H         LINE#         997
  C:4069H         LINE#         998
BL51 BANKED LINKER/LOCATER V6.22.2.0                                                  07/02/2021  21:25:49  PAGE 71


  C:4069H         LINE#         999
  C:406CH         LINE#         1000
  C:4071H         LINE#         1001
  C:4071H         LINE#         1002
  C:4081H         LINE#         1004
  C:4081H         LINE#         1006
  C:4081H         LINE#         1007
  C:4081H         LINE#         1008
  C:4084H         LINE#         1009
  C:4084H         LINE#         1010
  C:4084H         LINE#         1011
  C:408FH         LINE#         1012
  C:408FH         LINE#         1013
  C:409AH         LINE#         1014
  C:409DH         LINE#         1015
  C:40A2H         LINE#         1016
  C:40A2H         LINE#         1017
  C:40B2H         LINE#         1018
  C:40B2H         LINE#         1019
  C:40B2H         LINE#         1020
  C:40BEH         LINE#         1021
  C:40BEH         LINE#         1022
  C:40C6H         LINE#         1023
  C:40CBH         LINE#         1024
  C:40CBH         LINE#         1025
  C:40CBH         LINE#         1026
  C:40D7H         LINE#         1027
  C:40D7H         LINE#         1028
  C:40E1H         LINE#         1029
  C:40E4H         LINE#         1030
  C:40E9H         LINE#         1031
  C:40E9H         LINE#         1032
  C:40F4H         LINE#         1033
  C:40F4H         LINE#         1034
  C:40FDH         LINE#         1035
  C:4100H         LINE#         1036
  C:4105H         LINE#         1037
  C:4105H         LINE#         1039
  C:4105H         LINE#         1040
  C:4105H         LINE#         1041
  C:4105H         LINE#         1042
  C:4111H         LINE#         1043
  C:4111H         LINE#         1044
  C:4111H         LINE#         1045
  C:4116H         LINE#         1046
  C:4116H         LINE#         1047
  C:411EH         LINE#         1048
  C:411EH         LINE#         1049
  C:4121H         LINE#         1050
  C:4126H         LINE#         1051
  C:4126H         LINE#         1052
  C:4126H         LINE#         1054
  C:4126H         LINE#         1055
  C:4126H         LINE#         1056
  C:412BH         LINE#         1057
  C:412BH         LINE#         1058
  C:412EH         LINE#         1059
BL51 BANKED LINKER/LOCATER V6.22.2.0                                                  07/02/2021  21:25:49  PAGE 72


  C:412EH         LINE#         1060
  C:412EH         LINE#         1061
  C:4139H         LINE#         1062
  C:4139H         LINE#         1063
  C:4142H         LINE#         1064
  C:4145H         LINE#         1065
  C:414AH         LINE#         1066
  C:414AH         LINE#         1067
  C:415AH         LINE#         1069
  C:415AH         LINE#         1071
  C:415AH         LINE#         1072
  C:415AH         LINE#         1073
  C:415DH         LINE#         1074
  C:415DH         LINE#         1075
  C:415DH         LINE#         1076
  C:4168H         LINE#         1077
  C:4168H         LINE#         1078
  C:416EH         LINE#         1079
  C:4171H         LINE#         1080
  C:4176H         LINE#         1081
  C:4176H         LINE#         1082
  C:4183H         LINE#         1083
  C:4183H         LINE#         1085
  C:4183H         LINE#         1086
  C:418AH         LINE#         1087
  C:4191H         LINE#         1088
  C:4194H         LINE#         1089
  -------         ENDPROC       _ROW_OLED_CH16STR
  C:79EDH         SYMBOL        L?0551
  -------         PROC          _ROW_OLED_PRINT
  X:035EH         SYMBOL        x
  X:035FH         SYMBOL        y
  X:0360H         SYMBOL        ch
  -------         DO            
  X:0363H         SYMBOL        buff
  X:0366H         SYMBOL        ii
  -------         ENDDO         
  C:7970H         LINE#         1092
  C:7976H         LINE#         1093
  C:7976H         LINE#         1095
  C:7980H         LINE#         1097
  C:7994H         LINE#         1098
  C:7994H         LINE#         1099
  C:799CH         LINE#         1100
  C:799CH         LINE#         1101
  C:79A2H         LINE#         1102
  C:79A8H         LINE#         1103
  C:79A8H         LINE#         1104
  C:79A8H         LINE#         1105
  C:79AEH         LINE#         1106
  C:79B6H         LINE#         1107
  C:79B8H         LINE#         1109
  C:79B8H         LINE#         1110
  C:79CBH         LINE#         1111
  C:79CBH         LINE#         1112
  C:79CBH         LINE#         1113
  C:79D1H         LINE#         1114
BL51 BANKED LINKER/LOCATER V6.22.2.0                                                  07/02/2021  21:25:49  PAGE 73


  C:79E9H         LINE#         1115
  C:79E9H         LINE#         1116
  C:79ECH         LINE#         1118
  -------         ENDPROC       _ROW_OLED_PRINT
  -------         PROC          _OLED_CH16_STR
  X:011BH         SYMBOL        x
  X:011CH         SYMBOL        y
  D:0003H         SYMBOL        N
  -------         DO            
  X:011DH         SYMBOL        i
  X:011EH         SYMBOL        adder
  X:0120H         SYMBOL        yCount
  -------         ENDDO         
  C:7F4CH         LINE#         1119
  C:7F4FH         LINE#         1120
  C:7F4FH         LINE#         1121
  C:7F52H         LINE#         1122
  C:7F5CH         LINE#         1124
  C:7F61H         LINE#         1125
  C:7F68H         LINE#         1126
  C:7F68H         LINE#         1127
  C:7F73H         LINE#         1128
  C:7F80H         LINE#         1129
  C:7F80H         LINE#         1130
  C:7F89H         LINE#         1131
  C:7F97H         LINE#         1132
  C:7F9FH         LINE#         1133
  C:7FA5H         LINE#         1134
  C:7FC4H         LINE#         1136
  -------         ENDPROC       _OLED_CH16_STR
  -------         PROC          _OLED_CH16_CHAR
  X:0110H         SYMBOL        x
  X:0111H         SYMBOL        y
  X:0112H         SYMBOL        page_floor
  X:0113H         SYMBOL        page_one_numb
  X:0114H         SYMBOL        page_two_numb
  -------         DO            
  X:0115H         SYMBOL        page_center_data
  X:0119H         SYMBOL        i
  -------         ENDDO         
  C:7492H         LINE#         1141
  C:7498H         LINE#         1142
  C:7498H         LINE#         1143
  C:74ABH         LINE#         1144
  C:74B2H         LINE#         1145
  C:74B8H         LINE#         1146
  C:74B8H         LINE#         1147
  C:74C0H         LINE#         1148
  C:74C0H         LINE#         1149
  C:74DFH         LINE#         1150
  C:74EBH         LINE#         1151
  C:74EBH         LINE#         1152
  C:74EDH         LINE#         1153
  C:74F5H         LINE#         1154
  C:74F5H         LINE#         1155
  C:752EH         LINE#         1156
  C:7540H         LINE#         1157
BL51 BANKED LINKER/LOCATER V6.22.2.0                                                  07/02/2021  21:25:49  PAGE 74


  C:7547H         LINE#         1158
  C:7547H         LINE#         1159
  C:7569H         LINE#         1161
  -------         ENDPROC       _OLED_CH16_CHAR
  -------         ENDMOD        SEEKFREE_MPU6050

  -------         MODULE        ISR
  C:0000H         SYMBOL        _ICE_DUMMY_
  D:0080H         PUBLIC        P0
  C:8E13H         PUBLIC        Uart2Isr
  D:0090H         PUBLIC        P1
  C:8E35H         PUBLIC        Uart3Isr
  D:00A0H         PUBLIC        P2
  C:8E57H         PUBLIC        Uart4Isr
  D:00B0H         PUBLIC        P3
  D:00C0H         PUBLIC        P4
  D:00C8H         PUBLIC        P5
  D:00A8H         PUBLIC        IE
  D:00FAH         PUBLIC        CCAP0H
  D:00FBH         PUBLIC        CCAP1H
  D:00EAH         PUBLIC        CCAP0L
  D:00EBH         PUBLIC        CCAP1L
  D:00B8H         PUBLIC        IP
  B:0098H.0       PUBLIC        RI
  B:0098H.1       PUBLIC        TI
  D:00D8H         PUBLIC        CCON
  C:0021H         PUBLIC        INT0_Isr
  C:0022H         PUBLIC        INT1_Isr
  C:0041H         PUBLIC        INT2_Isr
  C:0042H         PUBLIC        INT3_Isr
  C:0052H         PUBLIC        INT4_Isr
  D:0099H         PUBLIC        SBUF
  D:0098H         PUBLIC        SCON
  D:0088H         PUBLIC        TCON
  D:00C7H         PUBLIC        IAP_CONTR
  C:843CH         PUBLIC        UartIsr
  C:8267H         PUBLIC        PCA_Isr
  D:009AH         PUBLIC        S2CON
  D:00ACH         PUBLIC        S3CON
  D:0084H         PUBLIC        S4CON
  D:00D0H         PUBLIC        PSW
  B:00D8H.0       PUBLIC        CCF0
  B:00D8H.1       PUBLIC        CCF1
  -------         PROC          UARTISR
  -------         DO            
  D:0007H         SYMBOL        res
  X:03D1H         SYMBOL        dwon_count
  -------         ENDDO         
  C:843CH         LINE#         22
  C:844BH         LINE#         26
  C:844EH         LINE#         27
  C:844EH         LINE#         28
  C:8450H         LINE#         29
  C:8455H         LINE#         30
  C:8455H         LINE#         31
  C:8458H         LINE#         32
  C:8458H         LINE#         33
BL51 BANKED LINKER/LOCATER V6.22.2.0                                                  07/02/2021  21:25:49  PAGE 75


  C:845AH         LINE#         34
  C:845CH         LINE#         36
  C:8467H         LINE#         37
  C:8467H         LINE#         38
  C:8478H         LINE#         39
  C:847BH         LINE#         40
  C:847DH         LINE#         42
  C:847DH         LINE#         43
  C:8482H         LINE#         44
  C:8482H         LINE#         45
  C:8482H         LINE#         46
  -------         ENDPROC       UARTISR
  -------         PROC          UART2ISR
  C:8E13H         LINE#         49
  C:8E19H         LINE#         51
  C:8E1EH         LINE#         52
  C:8E1EH         LINE#         53
  C:8E21H         LINE#         54
  C:8E26H         LINE#         55
  C:8E26H         LINE#         56
  C:8E2BH         LINE#         57
  C:8E2BH         LINE#         58
  C:8E2EH         LINE#         61
  C:8E2EH         LINE#         62
  -------         ENDPROC       UART2ISR
  -------         PROC          UART3ISR
  C:8E35H         LINE#         66
  C:8E3BH         LINE#         68
  C:8E40H         LINE#         69
  C:8E40H         LINE#         70
  C:8E43H         LINE#         71
  C:8E48H         LINE#         72
  C:8E48H         LINE#         73
  C:8E4DH         LINE#         74
  C:8E4DH         LINE#         75
  C:8E50H         LINE#         78
  C:8E50H         LINE#         79
  -------         ENDPROC       UART3ISR
  -------         PROC          UART4ISR
  C:8E57H         LINE#         84
  C:8E5DH         LINE#         86
  C:8E62H         LINE#         87
  C:8E62H         LINE#         88
  C:8E65H         LINE#         89
  C:8E6AH         LINE#         90
  C:8E6AH         LINE#         91
  C:8E6FH         LINE#         92
  C:8E6FH         LINE#         93
  C:8E72H         LINE#         97
  C:8E72H         LINE#         98
  -------         ENDPROC       UART4ISR
  -------         PROC          PCA_ISR
  C:8267H         LINE#         100
  C:8276H         LINE#         103
  C:8279H         LINE#         104
  C:8279H         LINE#         106
  C:827BH         LINE#         108
BL51 BANKED LINKER/LOCATER V6.22.2.0                                                  07/02/2021  21:25:49  PAGE 76


  C:8284H         LINE#         109
  C:8287H         LINE#         110
  C:829BH         LINE#         113
  C:829BH         LINE#         115
  C:829EH         LINE#         116
  C:829EH         LINE#         118
  C:82A0H         LINE#         120
  C:82A9H         LINE#         121
  C:82ACH         LINE#         122
  C:82C0H         LINE#         124
  C:82C0H         LINE#         139
  -------         ENDPROC       PCA_ISR
  -------         PROC          INT0_ISR
  C:0021H         LINE#         143
  C:0021H         LINE#         146
  -------         ENDPROC       INT0_ISR
  -------         PROC          INT1_ISR
  C:0022H         LINE#         147
  C:0022H         LINE#         150
  -------         ENDPROC       INT1_ISR
  -------         PROC          INT2_ISR
  C:0041H         LINE#         151
  C:0041H         LINE#         154
  -------         ENDPROC       INT2_ISR
  -------         PROC          INT3_ISR
  C:0042H         LINE#         155
  C:0042H         LINE#         158
  -------         ENDPROC       INT3_ISR
  -------         PROC          INT4_ISR
  C:0052H         LINE#         160
  C:0052H         LINE#         163
  -------         ENDPROC       INT4_ISR
  -------         ENDMOD        ISR

  -------         MODULE        MAIN
  C:0000H         SYMBOL        _ICE_DUMMY_
  D:0080H         PUBLIC        P0
  D:0090H         PUBLIC        P1
  D:00A0H         PUBLIC        P2
  D:00B0H         PUBLIC        P3
  D:00C0H         PUBLIC        P4
  D:00C8H         PUBLIC        P5
  D:00A8H         PUBLIC        IE
  D:00B8H         PUBLIC        IP
  D:00D8H         PUBLIC        CCON
  C:6FBEH         PUBLIC        main
  B:00A0H.0       PUBLIC        P20
  B:00A0H.1       PUBLIC        P21
  B:00A0H.2       PUBLIC        P22
  D:0098H         PUBLIC        SCON
  D:0088H         PUBLIC        TCON
  D:00D0H         PUBLIC        PSW
  C:90EFH         SYMBOL        Com0004
  C:90EFH         SYMBOL        L?0005
  C:90EFH         SYMBOL        L?0006
  -------         PROC          COM0004
  -------         ENDPROC       COM0004
BL51 BANKED LINKER/LOCATER V6.22.2.0                                                  07/02/2021  21:25:49  PAGE 77


  C:70B5H         SYMBOL        L?0007
  C:70BDH         SYMBOL        L?0008
  -------         PROC          MAIN
  C:6FBEH         LINE#         42
  C:6FBEH         LINE#         43
  C:6FBEH         LINE#         44
  C:6FC1H         LINE#         45
  C:6FC4H         LINE#         46
  C:6FC7H         LINE#         47
  C:6FCAH         LINE#         48
  C:6FCDH         LINE#         54
  C:6FD0H         LINE#         55
  C:6FD5H         LINE#         56
  C:6FDAH         LINE#         57
  C:6FE3H         LINE#         59
  C:6FE5H         LINE#         60
  C:6FE7H         LINE#         61
  C:6FE9H         LINE#         62
  C:6FECH         LINE#         63
  C:6FFEH         LINE#         64
  C:7010H         LINE#         65
  C:7013H         LINE#         67
  C:7016H         LINE#         69
  C:7016H         LINE#         70
  C:7016H         LINE#         71
  C:707BH         LINE#         72
  C:707EH         LINE#         73
  C:7081H         LINE#         74
  C:7084H         LINE#         75
  C:7087H         LINE#         76
  C:708AH         LINE#         77
  C:7090H         LINE#         82
  C:70B2H         LINE#         86
  C:70B5H         LINE#         87
  -------         ENDPROC       MAIN
  -------         ENDMOD        MAIN

  -------         MODULE        USER_MENU
  C:0000H         SYMBOL        _ICE_DUMMY_
  C:33F5H         PUBLIC        page_two_data_min
  D:0080H         PUBLIC        P0
  C:34A9H         PUBLIC        page_two_data_max
  X:0000H         PUBLIC        select_flag
  D:0090H         PUBLIC        P1
  D:00A0H         PUBLIC        P2
  D:00B0H         PUBLIC        P3
  D:00C0H         PUBLIC        P4
  X:0001H         PUBLIC        page_center
  D:00C8H         PUBLIC        P5
  C:5AB6H         PUBLIC        _new_row_page
  C:6C83H         PUBLIC        data_restore
  C:3284H         PUBLIC        page_two_num
  D:00A8H         PUBLIC        IE
  C:468AH         PUBLIC        _row_page_two
  X:0002H         PUBLIC        page_2_center
  X:000BH         PUBLIC        Strong_temp_flag
  X:000CH         PUBLIC        TEMP_SET_INIT_FLAG
BL51 BANKED LINKER/LOCATER V6.22.2.0                                                  07/02/2021  21:25:49  PAGE 78


  D:00B8H         PUBLIC        IP
  X:000DH         PUBLIC        BEEP_flag
  X:000EH         PUBLIC        last_center
  X:000FH         PUBLIC        page_flag
  X:0010H         PUBLIC        page_right
  C:6913H         PUBLIC        Function_execute
  D:00D8H         PUBLIC        CCON
  X:0011H         PUBLIC        page_left
  X:0012H         PUBLIC        page_2_flag
  C:85CFH         PUBLIC        OLED_OFF_handle
  B:00A0H.0       PUBLIC        P20
  X:001BH         PUBLIC        last_hide
  C:8532H         PUBLIC        data_init
  B:00A0H.1       PUBLIC        P21
  X:001CH         PUBLIC        menu_flag
  B:00A0H.2       PUBLIC        P22
  D:0098H         PUBLIC        SCON
  D:0088H         PUBLIC        TCON
  C:33ECH         PUBLIC        page_two_num_max
  X:001DH         PUBLIC        last_right
  C:3611H         SYMBOL        _?ix1000
  C:361DH         SYMBOL        _?ix1001
  X:001EH         PUBLIC        last_left
  C:3629H         SYMBOL        _?ix1002
  X:001FH         PUBLIC        icon_size_flag
  C:803BH         PUBLIC        STRONG_TEMP_handle
  X:0020H         PUBLIC        page_2_down
  X:0029H         PUBLIC        row_speed
  D:0022H         PUBLIC        save_data_A
  D:0042H         PUBLIC        save_data_B
  X:002AH         PUBLIC        row_flag
  X:002BH         PUBLIC        page_two_data
  C:6B62H         PUBLIC        _row_page
  C:0006H         PUBLIC        _page_one_menu
  C:3AB8H         PUBLIC        key_press
  C:762CH         PUBLIC        show_menu
  C:6A40H         PUBLIC        Function_init
  C:6EB1H         PUBLIC        _top_menu
  C:89E2H         PUBLIC        BEEP_handle
  C:355DH         PUBLIC        page_two_init_data
  C:63D0H         PUBLIC        data_transmit
  C:3260H         PUBLIC        page_one_num
  X:00DFH         PUBLIC        page_2_up
  D:00D0H         PUBLIC        PSW
  X:00E8H         PUBLIC        row_derection
  C:4A37H         SYMBOL        Com015C
  C:4A37H         SYMBOL        L?0349
  C:4A37H         SYMBOL        L?0350
  C:4A49H         SYMBOL        L?0351
  C:4A4DH         SYMBOL        L?0352
  C:4A50H         SYMBOL        L?0353
  C:4A60H         SYMBOL        L?0354
  C:4A68H         SYMBOL        L?0355
  C:4A7BH         SYMBOL        L?0356
  C:4A7BH         SYMBOL        L?0357
  C:4A8BH         SYMBOL        L?0358
  C:4A94H         SYMBOL        L?0359
BL51 BANKED LINKER/LOCATER V6.22.2.0                                                  07/02/2021  21:25:49  PAGE 79


  C:4A97H         SYMBOL        L?0360
  C:4AA0H         SYMBOL        L?0361
  C:4AA9H         SYMBOL        L?0362
  C:4AB8H         SYMBOL        L?0364
  C:4AB8H         SYMBOL        L?0365
  C:4ABDH         SYMBOL        L?0366
  C:4ABEH         SYMBOL        L?0367
  C:4ACEH         SYMBOL        L?0368
  C:4ACEH         SYMBOL        L?0369
  C:4ACFH         SYMBOL        L?0370
  C:4ADBH         SYMBOL        L?0371
  C:4ADFH         SYMBOL        L?0372
  C:4AEEH         SYMBOL        L?0373
  C:4AF3H         SYMBOL        L?0374
  C:4AFBH         SYMBOL        L?0375
  C:4B25H         SYMBOL        L?0376
  C:4B26H         SYMBOL        L?0377
  C:4B2AH         SYMBOL        L?0378
  C:4B35H         SYMBOL        L?0379
  C:4B35H         SYMBOL        L?0380
  C:4B38H         SYMBOL        L?0381
  C:4B47H         SYMBOL        L?0383
  C:4B4AH         SYMBOL        L?0384
  C:4B55H         SYMBOL        L?0385
  C:4B74H         SYMBOL        L?0386
  C:4B77H         SYMBOL        L?0387
  C:4B80H         SYMBOL        L?0388
  C:4B80H         SYMBOL        L?0389
  C:4B83H         SYMBOL        L?0390
  C:4B8AH         SYMBOL        L?0391
  C:4B8AH         SYMBOL        L?0392
  C:4B8EH         SYMBOL        L?0393
  C:4B8FH         SYMBOL        L?0394
  C:4B99H         SYMBOL        L?0395
  C:4B99H         SYMBOL        L?0396
  C:4BA2H         SYMBOL        L?0397
  C:4BA2H         SYMBOL        L?0398
  C:4BACH         SYMBOL        L?0399
  C:4BAEH         SYMBOL        L?0400
  C:4BB0H         SYMBOL        L?0401
  C:4BB7H         SYMBOL        L?0402
  C:4BB7H         SYMBOL        L?0403
  C:4BC2H         SYMBOL        L?0404
  C:4BC5H         SYMBOL        L?0405
  C:4BCCH         SYMBOL        L?0406
  C:4BCCH         SYMBOL        L?0407
  C:4BE0H         SYMBOL        L?0408
  C:4BE0H         SYMBOL        L?0409
  C:4BE4H         SYMBOL        L?0410
  C:4BE6H         SYMBOL        L?0411
  C:4BEDH         SYMBOL        L?0412
  C:4BEDH         SYMBOL        L?0413
  C:4C00H         SYMBOL        L?0414
  C:4C00H         SYMBOL        L?0415
  C:4C05H         SYMBOL        L?0416
  C:4C0FH         SYMBOL        L?0417
  C:4C16H         SYMBOL        L?0418
BL51 BANKED LINKER/LOCATER V6.22.2.0                                                  07/02/2021  21:25:49  PAGE 80


  C:4C16H         SYMBOL        L?0419
  C:4C21H         SYMBOL        L?0420
  C:4C21H         SYMBOL        L?0421
  C:4C24H         SYMBOL        L?0422
  C:4C2BH         SYMBOL        L?0423
  C:4C2BH         SYMBOL        L?0424
  C:4C37H         SYMBOL        L?0425
  C:4C3CH         SYMBOL        L?0426
  C:4C4BH         SYMBOL        L?0427
  C:4C52H         SYMBOL        L?0428
  C:4C54H         SYMBOL        L?0429
  C:4C5BH         SYMBOL        L?0431
  C:4C74H         SYMBOL        L?0432
  C:4C8CH         SYMBOL        L?0433
  C:4C8CH         SYMBOL        L?0434
  C:4C94H         SYMBOL        L?0435
  C:4CAAH         SYMBOL        L?0436
  C:4CBFH         SYMBOL        L?0438
  C:4CD3H         SYMBOL        L?0439
  C:4CE7H         SYMBOL        L?0440
  C:4CEBH         SYMBOL        L?0441
  C:4CF2H         SYMBOL        L?0442
  C:4D05H         SYMBOL        L?0443
  C:4D17H         SYMBOL        L?0445
  C:4D1EH         SYMBOL        L?0446
  C:4D1EH         SYMBOL        L?0447
  C:4D26H         SYMBOL        L?0448
  C:4D35H         SYMBOL        L?0449
  C:4D35H         SYMBOL        L?0450
  C:4D3EH         SYMBOL        L?0451
  C:4D3EH         SYMBOL        L?0452
  C:4D47H         SYMBOL        L?0453
  C:4D49H         SYMBOL        L?0454
  C:4D50H         SYMBOL        L?0456
  C:4D50H         SYMBOL        L?0457
  C:4D57H         SYMBOL        L?0458
  C:4D57H         SYMBOL        L?0459
  C:4D5EH         SYMBOL        L?0460
  C:4D6BH         SYMBOL        L?0461
  C:4D6BH         SYMBOL        L?0462
  C:4D72H         SYMBOL        L?0463
  C:4D72H         SYMBOL        L?0464
  C:4D79H         SYMBOL        L?0465
  C:4D86H         SYMBOL        L?0470
  C:4D92H         SYMBOL        L?0471
  C:4D92H         SYMBOL        L?0472
  C:4D9AH         SYMBOL        L?0475
  C:4DA5H         SYMBOL        L?0476
  C:4DB0H         SYMBOL        L?0479
  C:4DBAH         SYMBOL        L?0480
  C:4DC4H         SYMBOL        L?0481
  C:4DC4H         SYMBOL        L?0482
  -------         PROC          COM015C
  -------         ENDPROC       COM015C
  -------         PROC          BEEP_HANDLE
  C:89E2H         LINE#         198
  C:89E2H         LINE#         199
BL51 BANKED LINKER/LOCATER V6.22.2.0                                                  07/02/2021  21:25:49  PAGE 81


  C:89E2H         LINE#         200
  C:89EEH         LINE#         201
  C:89EEH         LINE#         202
  C:89FAH         LINE#         203
  C:89FAH         LINE#         204
  C:8A0EH         LINE#         205
  C:8A10H         LINE#         207
  C:8A10H         LINE#         208
  C:8A17H         LINE#         209
  C:8A17H         LINE#         210
  C:8A17H         LINE#         212
  C:8A17H         LINE#         213
  C:8A1CH         LINE#         214
  C:8A1CH         LINE#         215
  -------         ENDPROC       BEEP_HANDLE
  C:8608H         SYMBOL        L?0430
  C:8612H         SYMBOL        L?0444
  -------         PROC          OLED_OFF_HANDLE
  C:85CFH         LINE#         216
  C:85CFH         LINE#         217
  C:85CFH         LINE#         218
  C:85D7H         LINE#         219
  C:85D7H         LINE#         220
  C:85D7H         LINE#         221
  C:85E2H         LINE#         222
  C:85E4H         LINE#         223
  C:85EBH         LINE#         224
  C:85EBH         LINE#         225
  C:85F3H         LINE#         226
  C:85F3H         LINE#         227
  C:85F3H         LINE#         228
  C:85FEH         LINE#         229
  C:8600H         LINE#         230
  C:8607H         LINE#         231
  C:8607H         LINE#         232
  -------         ENDPROC       OLED_OFF_HANDLE
  C:80A9H         SYMBOL        L?0455
  -------         PROC          STRONG_TEMP_HANDLE
  C:803BH         LINE#         233
  C:803BH         LINE#         234
  C:803BH         LINE#         235
  C:8045H         LINE#         237
  C:8045H         LINE#         238
  C:8051H         LINE#         239
  C:8051H         LINE#         240
  C:8059H         LINE#         241
  C:805FH         LINE#         242
  C:8065H         LINE#         244
  C:8067H         LINE#         246
  C:8067H         LINE#         247
  C:806FH         LINE#         248
  C:806FH         LINE#         249
  C:8072H         LINE#         250
  C:8075H         LINE#         251
  C:807AH         LINE#         252
  C:807AH         LINE#         253
  C:807AH         LINE#         254
BL51 BANKED LINKER/LOCATER V6.22.2.0                                                  07/02/2021  21:25:49  PAGE 82


  C:807CH         LINE#         256
  C:807CH         LINE#         258
  C:8085H         LINE#         260
  C:8085H         LINE#         261
  C:808BH         LINE#         262
  C:808BH         LINE#         263
  C:8095H         LINE#         264
  C:8095H         LINE#         266
  C:8098H         LINE#         267
  C:80A0H         LINE#         268
  C:80A0H         LINE#         269
  C:80A3H         LINE#         270
  C:80A8H         LINE#         271
  C:80A8H         LINE#         272
  C:80A8H         LINE#         273
  C:80A8H         LINE#         275
  -------         ENDPROC       STRONG_TEMP_HANDLE
  -------         PROC          DATA_INIT
  -------         DO            
  D:0004H         SYMBOL        i
  X:00E9H         SYMBOL        j
  -------         ENDDO         
  C:8532H         LINE#         276
  C:8532H         LINE#         277
  C:8532H         LINE#         278
  C:8539H         LINE#         279
  C:853BH         LINE#         280
  C:853BH         LINE#         281
  C:8551H         LINE#         282
  C:8551H         LINE#         283
  C:8565H         LINE#         284
  C:8575H         LINE#         285
  C:8580H         LINE#         286
  -------         ENDPROC       DATA_INIT
  -------         PROC          DATA_TRANSMIT
  C:63D0H         LINE#         289
  C:63D0H         LINE#         290
  C:63D0H         LINE#         291
  C:63D7H         LINE#         292
  C:63DCH         LINE#         293
  C:63E1H         LINE#         295
  C:63E8H         LINE#         296
  C:63EDH         LINE#         297
  C:63F2H         LINE#         301
  C:63F9H         LINE#         302
  C:63FEH         LINE#         304
  C:6405H         LINE#         305
  C:640AH         LINE#         306
  C:640FH         LINE#         307
  C:6414H         LINE#         308
  C:6419H         LINE#         310
  C:6421H         LINE#         311
  C:642EH         LINE#         312
  C:6433H         LINE#         313
  C:6440H         LINE#         314
  C:6445H         LINE#         315
  C:6452H         LINE#         316
BL51 BANKED LINKER/LOCATER V6.22.2.0                                                  07/02/2021  21:25:49  PAGE 83


  C:6457H         LINE#         317
  C:6464H         LINE#         318
  C:6469H         LINE#         319
  C:6476H         LINE#         320
  C:647BH         LINE#         321
  C:6488H         LINE#         323
  C:6490H         LINE#         324
  C:649DH         LINE#         326
  C:64A2H         LINE#         327
  C:64AFH         LINE#         329
  C:64B4H         LINE#         330
  C:64C1H         LINE#         332
  C:64C6H         LINE#         333
  C:64D3H         LINE#         335
  C:64D8H         LINE#         336
  C:64E5H         LINE#         338
  C:64EAH         LINE#         339
  C:64F7H         LINE#         341
  C:64FCH         LINE#         342
  C:6509H         LINE#         344
  C:6510H         LINE#         345
  C:6515H         LINE#         346
  C:651AH         LINE#         348
  C:6521H         LINE#         349
  C:6526H         LINE#         352
  -------         ENDPROC       DATA_TRANSMIT
  -------         PROC          DATA_RESTORE
  C:6C83H         LINE#         354
  C:6C83H         LINE#         355
  C:6C83H         LINE#         356
  C:6C8AH         LINE#         357
  C:6C90H         LINE#         358
  C:6C97H         LINE#         360
  C:6C9EH         LINE#         361
  C:6CA4H         LINE#         362
  C:6CABH         LINE#         366
  C:6CB2H         LINE#         367
  C:6CB8H         LINE#         369
  C:6CBFH         LINE#         370
  C:6CC5H         LINE#         371
  C:6CCAH         LINE#         372
  C:6CD0H         LINE#         373
  C:6CD7H         LINE#         375
  C:6CECH         LINE#         376
  C:6CF7H         LINE#         377
  C:6D02H         LINE#         378
  C:6D0DH         LINE#         379
  C:6D18H         LINE#         380
  C:6D23H         LINE#         382
  C:6D36H         LINE#         383
  C:6D41H         LINE#         384
  C:6D4CH         LINE#         385
  C:6D57H         LINE#         386
  C:6D62H         LINE#         387
  C:6D6DH         LINE#         388
  C:6D78H         LINE#         390
  C:6D81H         LINE#         391
BL51 BANKED LINKER/LOCATER V6.22.2.0                                                  07/02/2021  21:25:49  PAGE 84


  C:6D88H         LINE#         392
  C:6D8FH         LINE#         394
  C:6D96H         LINE#         395
  C:6D9CH         LINE#         398
  -------         ENDPROC       DATA_RESTORE
  C:6B58H         SYMBOL        L?0466
  -------         PROC          FUNCTION_INIT
  C:6A40H         LINE#         399
  C:6A40H         LINE#         400
  C:6A40H         LINE#         402
  C:6A4AH         LINE#         403
  C:6A4DH         LINE#         404
  C:6A59H         LINE#         405
  C:6A59H         LINE#         406
  C:6A5DH         LINE#         407
  C:6A5FH         LINE#         409
  C:6A5FH         LINE#         410
  C:6A68H         LINE#         411
  C:6A68H         LINE#         412
  C:6A74H         LINE#         413
  C:6A74H         LINE#         414
  C:6A76H         LINE#         415
  C:6A7BH         LINE#         416
  C:6A7DH         LINE#         418
  C:6A7DH         LINE#         419
  C:6A80H         LINE#         420
  C:6A89H         LINE#         421
  C:6A89H         LINE#         422
  C:6A8EH         LINE#         423
  C:6A8EH         LINE#         424
  C:6A91H         LINE#         425
  C:6A94H         LINE#         426
  C:6A96H         LINE#         428
  C:6A96H         LINE#         429
  C:6A99H         LINE#         430
  C:6AA2H         LINE#         431
  C:6AA2H         LINE#         432
  C:6AAEH         LINE#         433
  C:6AAEH         LINE#         435
  C:6AAEH         LINE#         436
  C:6AB4H         LINE#         437
  C:6ABDH         LINE#         438
  C:6ACAH         LINE#         439
  C:6AD1H         LINE#         440
  C:6AD1H         LINE#         441
  C:6ADDH         LINE#         442
  C:6ADDH         LINE#         444
  C:6AE0H         LINE#         445
  C:6AE0H         LINE#         446
  C:6AE6H         LINE#         447
  C:6AEFH         LINE#         448
  C:6AFEH         LINE#         449
  C:6B05H         LINE#         450
  C:6B05H         LINE#         452
  C:6B1BH         LINE#         453
  C:6B1BH         LINE#         454
  C:6B1BH         LINE#         455
BL51 BANKED LINKER/LOCATER V6.22.2.0                                                  07/02/2021  21:25:49  PAGE 85


  C:6B1DH         LINE#         456
  C:6B1DH         LINE#         457
  C:6B1DH         LINE#         458
  C:6B1FH         LINE#         459
  C:6B1FH         LINE#         460
  C:6B21H         LINE#         461
  C:6B23H         LINE#         462
  C:6B25H         LINE#         463
  C:6B27H         LINE#         464
  C:6B27H         LINE#         465
  C:6B29H         LINE#         466
  C:6B2BH         LINE#         467
  C:6B2DH         LINE#         468
  C:6B2FH         LINE#         469
  C:6B2FH         LINE#         470
  C:6B31H         LINE#         471
  C:6B33H         LINE#         472
  C:6B35H         LINE#         473
  C:6B37H         LINE#         474
  C:6B37H         LINE#         475
  C:6B39H         LINE#         476
  C:6B3BH         LINE#         477
  C:6B3DH         LINE#         478
  C:6B3DH         LINE#         479
  C:6B3DH         LINE#         481
  C:6B3DH         LINE#         482
  C:6B3DH         LINE#         483
  C:6B42H         LINE#         484
  C:6B42H         LINE#         485
  C:6B4AH         LINE#         486
  C:6B4AH         LINE#         487
  C:6B4CH         LINE#         488
  C:6B4DH         LINE#         490
  C:6B4DH         LINE#         491
  C:6B50H         LINE#         492
  C:6B50H         LINE#         493
  C:6B51H         LINE#         495
  C:6B51H         LINE#         496
  C:6B57H         LINE#         497
  C:6B57H         LINE#         501
  -------         ENDPROC       FUNCTION_INIT
  -------         PROC          _PAGE_ONE_MENU
  D:0007H         SYMBOL        x
  D:0005H         SYMBOL        y
  D:0003H         SYMBOL        flag
  C:0006H         LINE#         503
  C:0006H         LINE#         504
  C:0006H         LINE#         505
  -------         ENDPROC       _PAGE_ONE_MENU
  C:6C3DH         SYMBOL        L?0382
  C:6C6FH         SYMBOL        L?0473
  C:6C7BH         SYMBOL        L?0474
  -------         PROC          _ROW_PAGE
  D:0007H         SYMBOL        flag
  X:00E9H         SYMBOL        speed
  -------         DO            
  X:00EAH         SYMBOL        i
BL51 BANKED LINKER/LOCATER V6.22.2.0                                                  07/02/2021  21:25:49  PAGE 86


  -------         ENDDO         
  C:6B62H         LINE#         508
  C:6B66H         LINE#         509
  C:6B66H         LINE#         511
  C:6B66H         LINE#         512
  C:6B66H         LINE#         513
  C:6B66H         LINE#         514
  C:6B6EH         LINE#         515
  C:6B6EH         LINE#         516
  C:6B72H         LINE#         517
  C:6B72H         LINE#         518
  C:6B7DH         LINE#         519
  C:6B7DH         LINE#         520
  C:6B7FH         LINE#         521
  C:6B7FH         LINE#         522
  C:6B8AH         LINE#         523
  C:6B8AH         LINE#         524
  C:6B9FH         LINE#         525
  C:6B9FH         LINE#         526
  C:6BA2H         LINE#         527
  C:6BA7H         LINE#         528
  C:6BA7H         LINE#         529
  C:6BAAH         LINE#         530
  C:6BAAH         LINE#         531
  C:6BB0H         LINE#         532
  C:6BB5H         LINE#         533
  C:6BB5H         LINE#         534
  C:6BB8H         LINE#         536
  C:6BCCH         LINE#         537
  C:6BCCH         LINE#         538
  C:6BCFH         LINE#         539
  C:6BD8H         LINE#         540
  C:6BD8H         LINE#         541
  C:6BEDH         LINE#         542
  C:6BEDH         LINE#         543
  C:6BEDH         LINE#         544
  C:6BF2H         LINE#         545
  C:6BF2H         LINE#         546
  C:6BF4H         LINE#         547
  C:6BF4H         LINE#         548
  C:6BF5H         LINE#         549
  C:6BF5H         LINE#         550
  C:6BF8H         LINE#         551
  C:6C02H         LINE#         552
  C:6C18H         LINE#         553
  C:6C1DH         LINE#         554
  C:6C1DH         LINE#         555
  C:6C25H         LINE#         556
  C:6C2DH         LINE#         557
  C:6C39H         LINE#         558
  C:6C39H         LINE#         559
  C:6C39H         LINE#         560
  C:6C3CH         LINE#         562
  -------         ENDPROC       _ROW_PAGE
  C:5C09H         SYMBOL        L?0363
  C:5C4EH         SYMBOL        L?0437
  C:5C59H         SYMBOL        L?0467
BL51 BANKED LINKER/LOCATER V6.22.2.0                                                  07/02/2021  21:25:49  PAGE 87


  C:5C66H         SYMBOL        L?0477
  -------         PROC          _NEW_ROW_PAGE
  D:0007H         SYMBOL        flag
  X:00E9H         SYMBOL        speed
  X:00EAH         SYMBOL        mode
  -------         DO            
  X:00EBH         SYMBOL        i
  -------         ENDDO         
  C:5AB6H         LINE#         564
  C:5ABDH         LINE#         565
  C:5ABDH         LINE#         567
  C:5ABDH         LINE#         568
  C:5ABDH         LINE#         569
  C:5ABDH         LINE#         570
  C:5AC5H         LINE#         571
  C:5AC5H         LINE#         572
  C:5AC9H         LINE#         573
  C:5AC9H         LINE#         574
  C:5AD4H         LINE#         575
  C:5AD4H         LINE#         576
  C:5AD6H         LINE#         577
  C:5AD6H         LINE#         578
  C:5ADFH         LINE#         579
  C:5ADFH         LINE#         581
  C:5AEAH         LINE#         582
  C:5AEAH         LINE#         583
  C:5AF9H         LINE#         584
  C:5AF9H         LINE#         585
  C:5AFCH         LINE#         586
  C:5B01H         LINE#         587
  C:5B01H         LINE#         588
  C:5B04H         LINE#         589
  C:5B04H         LINE#         590
  C:5B0EH         LINE#         591
  C:5B11H         LINE#         592
  C:5B11H         LINE#         593
  C:5B19H         LINE#         595
  C:5B1FH         LINE#         598
  C:5B28H         LINE#         599
  C:5B28H         LINE#         600
  C:5B37H         LINE#         601
  C:5B37H         LINE#         602
  C:5B37H         LINE#         603
  C:5B3CH         LINE#         604
  C:5B3CH         LINE#         605
  C:5B3EH         LINE#         606
  C:5B3EH         LINE#         608
  C:5B3FH         LINE#         609
  C:5B3FH         LINE#         610
  C:5B42H         LINE#         611
  C:5B53H         LINE#         612
  C:5B59H         LINE#         613
  C:5B5EH         LINE#         614
  C:5B5EH         LINE#         615
  C:5B6BH         LINE#         616
  C:5B78H         LINE#         617
  C:5B82H         LINE#         618
BL51 BANKED LINKER/LOCATER V6.22.2.0                                                  07/02/2021  21:25:49  PAGE 88


  C:5B82H         LINE#         619
  C:5B82H         LINE#         620
  C:5B82H         LINE#         621
  C:5B85H         LINE#         622
  C:5B8DH         LINE#         623
  C:5B8DH         LINE#         624
  C:5B98H         LINE#         625
  C:5B98H         LINE#         626
  C:5BA7H         LINE#         627
  C:5BA7H         LINE#         629
  C:5BB1H         LINE#         630
  C:5BB8H         LINE#         632
  C:5BBBH         LINE#         633
  C:5BC0H         LINE#         634
  C:5BC0H         LINE#         635
  C:5BC2H         LINE#         636
  C:5BCBH         LINE#         637
  C:5BCBH         LINE#         638
  C:5BDAH         LINE#         639
  C:5BDAH         LINE#         642
  C:5BDFH         LINE#         643
  C:5BEBH         LINE#         644
  C:5BEEH         LINE#         645
  C:5BF3H         LINE#         646
  C:5BF8H         LINE#         647
  C:5BF8H         LINE#         648
  C:5C05H         LINE#         649
  C:5C05H         LINE#         650
  C:5C05H         LINE#         651
  C:5C08H         LINE#         652
  C:5C08H         LINE#         653
  -------         ENDPROC       _NEW_ROW_PAGE
  -------         PROC          _ROW_PAGE_TWO
  X:00E9H         SYMBOL        what_page
  -------         DO            
  X:00EAH         SYMBOL        up_ch
  X:00F6H         SYMBOL        center_ch
  X:0102H         SYMBOL        down_ch
  X:010EH         SYMBOL        i
  X:010FH         SYMBOL        page_1_num
  -------         ENDDO         
  C:468AH         LINE#         655
  C:468FH         LINE#         656
  C:468FH         LINE#         657
  C:469AH         LINE#         658
  C:46A5H         LINE#         659
  C:46B4H         LINE#         660
  C:46B9H         LINE#         662
  C:46C2H         LINE#         663
  C:46CFH         LINE#         664
  C:46EAH         LINE#         665
  C:46F5H         LINE#         666
  C:4703H         LINE#         667
  C:4703H         LINE#         668
  C:470DH         LINE#         669
  C:470DH         LINE#         671
  C:4740H         LINE#         672
BL51 BANKED LINKER/LOCATER V6.22.2.0                                                  07/02/2021  21:25:49  PAGE 89


  C:4740H         LINE#         673
  C:474AH         LINE#         674
  C:474AH         LINE#         676
  C:4763H         LINE#         680
  C:478EH         LINE#         681
  C:478EH         LINE#         682
  C:478EH         LINE#         683
  C:478EH         LINE#         684
  C:4791H         LINE#         685
  C:4791H         LINE#         686
  C:47A2H         LINE#         687
  C:47A2H         LINE#         688
  C:47A2H         LINE#         689
  C:47B8H         LINE#         690
  C:47B8H         LINE#         691
  C:47B8H         LINE#         692
  C:47BEH         LINE#         693
  C:47C1H         LINE#         694
  C:47C1H         LINE#         695
  C:47C7H         LINE#         696
  C:47CAH         LINE#         697
  C:47CAH         LINE#         698
  C:47CAH         LINE#         699
  C:47CAH         LINE#         700
  C:47DFH         LINE#         701
  C:47DFH         LINE#         702
  C:47DFH         LINE#         703
  C:47E5H         LINE#         704
  C:47E8H         LINE#         705
  C:47E8H         LINE#         706
  C:47EEH         LINE#         707
  C:47F1H         LINE#         708
  C:47F1H         LINE#         709
  C:47F1H         LINE#         710
  C:47F1H         LINE#         711
  C:47F1H         LINE#         712
  C:47F4H         LINE#         713
  C:47F4H         LINE#         714
  C:47F4H         LINE#         715
  C:47F4H         LINE#         716
  C:4808H         LINE#         717
  C:4808H         LINE#         718
  C:4808H         LINE#         719
  C:481EH         LINE#         720
  C:481EH         LINE#         721
  C:481EH         LINE#         722
  C:4824H         LINE#         723
  C:4827H         LINE#         724
  C:4827H         LINE#         725
  C:482DH         LINE#         726
  C:4830H         LINE#         727
  C:4830H         LINE#         728
  C:4830H         LINE#         729
  C:4830H         LINE#         730
  C:4845H         LINE#         731
  C:4845H         LINE#         732
  C:4845H         LINE#         733
BL51 BANKED LINKER/LOCATER V6.22.2.0                                                  07/02/2021  21:25:49  PAGE 90


  C:484BH         LINE#         734
  C:484EH         LINE#         735
  C:484EH         LINE#         736
  C:4854H         LINE#         737
  C:4857H         LINE#         738
  C:4857H         LINE#         739
  C:4857H         LINE#         740
  C:4857H         LINE#         741
  C:486CH         LINE#         742
  C:486CH         LINE#         743
  C:486CH         LINE#         744
  C:486FH         LINE#         745
  C:4872H         LINE#         746
  C:4872H         LINE#         747
  C:4875H         LINE#         748
  C:4878H         LINE#         749
  C:4878H         LINE#         750
  C:4878H         LINE#         751
  C:4878H         LINE#         752
  C:4878H         LINE#         753
  C:487AH         LINE#         754
  C:487AH         LINE#         755
  C:487AH         LINE#         756
  C:487AH         LINE#         757
  C:4895H         LINE#         758
  C:4895H         LINE#         759
  C:4895H         LINE#         760
  C:489BH         LINE#         761
  C:489EH         LINE#         762
  C:489EH         LINE#         763
  C:48A2H         LINE#         764
  C:48A5H         LINE#         765
  C:48A5H         LINE#         766
  C:48BAH         LINE#         767
  C:48BAH         LINE#         768
  C:48BAH         LINE#         769
  C:48BDH         LINE#         770
  C:48C0H         LINE#         771
  C:48C0H         LINE#         772
  C:48C3H         LINE#         773
  C:48C6H         LINE#         774
  C:48C6H         LINE#         775
  C:48C6H         LINE#         776
  C:48C6H         LINE#         777
  C:48D9H         LINE#         778
  C:48DFH         LINE#         779
  C:48E2H         LINE#         780
  C:48E2H         LINE#         781
  C:48F7H         LINE#         782
  C:48F7H         LINE#         783
  C:48F7H         LINE#         784
  C:48FAH         LINE#         785
  C:48FDH         LINE#         786
  C:48FDH         LINE#         787
  C:4900H         LINE#         788
  C:4903H         LINE#         789
  C:4903H         LINE#         790
BL51 BANKED LINKER/LOCATER V6.22.2.0                                                  07/02/2021  21:25:49  PAGE 91


  C:4903H         LINE#         792
  C:4903H         LINE#         793
  C:4903H         LINE#         794
  C:4903H         LINE#         795
  C:4907H         LINE#         796
  C:4909H         LINE#         797
  C:4909H         LINE#         798
  C:4920H         LINE#         799
  C:4920H         LINE#         800
  C:4920H         LINE#         801
  C:4934H         LINE#         802
  C:4934H         LINE#         803
  C:4934H         LINE#         804
  C:4954H         LINE#         805
  C:4954H         LINE#         806
  C:4954H         LINE#         807
  C:495AH         LINE#         808
  C:495DH         LINE#         809
  C:495DH         LINE#         810
  C:4963H         LINE#         811
  C:4966H         LINE#         812
  C:4966H         LINE#         813
  C:496CH         LINE#         814
  C:496FH         LINE#         815
  C:496FH         LINE#         816
  C:4975H         LINE#         817
  C:4978H         LINE#         818
  C:4978H         LINE#         819
  C:497EH         LINE#         820
  C:4981H         LINE#         821
  C:4981H         LINE#         822
  C:4981H         LINE#         823
  C:4981H         LINE#         824
  C:498DH         LINE#         825
  C:49A0H         LINE#         826
  C:49ABH         LINE#         827
  C:49AEH         LINE#         828
  C:49AEH         LINE#         829
  C:49C0H         LINE#         830
  C:49C0H         LINE#         831
  C:49C0H         LINE#         832
  C:49C8H         LINE#         833
  C:49CBH         LINE#         834
  C:49CBH         LINE#         835
  C:49D4H         LINE#         836
  C:49D7H         LINE#         837
  C:49D7H         LINE#         838
  C:49D7H         LINE#         839
  C:49D7H         LINE#         840
  C:49D7H         LINE#         841
  C:49D7H         LINE#         842
  C:49E1H         LINE#         843
  C:49E1H         LINE#         844
  C:49E1H         LINE#         845
  C:49F1H         LINE#         846
  C:49F1H         LINE#         847
  C:49F1H         LINE#         848
BL51 BANKED LINKER/LOCATER V6.22.2.0                                                  07/02/2021  21:25:49  PAGE 92


  C:49FCH         LINE#         849
  C:49FFH         LINE#         850
  C:49FFH         LINE#         851
  C:4A0AH         LINE#         852
  C:4A0CH         LINE#         854
  C:4A0CH         LINE#         855
  C:4A0CH         LINE#         856
  C:4A0CH         LINE#         857
  C:4A1BH         LINE#         858
  C:4A1BH         LINE#         859
  C:4A1BH         LINE#         860
  C:4A26H         LINE#         861
  C:4A28H         LINE#         862
  C:4A28H         LINE#         863
  C:4A36H         LINE#         864
  C:4A36H         LINE#         866
  C:4A36H         LINE#         867
  C:4A36H         LINE#         868
  C:4A36H         LINE#         869
  C:4A36H         LINE#         872
  C:4A36H         LINE#         874
  -------         ENDPROC       _ROW_PAGE_TWO
  C:6A29H         SYMBOL        L?0468
  C:6A33H         SYMBOL        L?0469
  -------         PROC          FUNCTION_EXECUTE
  C:6913H         LINE#         878
  C:6913H         LINE#         879
  C:6913H         LINE#         880
  C:692FH         LINE#         881
  C:692FH         LINE#         882
  C:692FH         LINE#         883
  C:692FH         LINE#         884
  C:692FH         LINE#         885
  C:693BH         LINE#         886
  C:693BH         LINE#         887
  C:693FH         LINE#         888
  C:6941H         LINE#         890
  C:6941H         LINE#         891
  C:694AH         LINE#         892
  C:694AH         LINE#         893
  C:6956H         LINE#         894
  C:6956H         LINE#         895
  C:6958H         LINE#         896
  C:695DH         LINE#         897
  C:695FH         LINE#         899
  C:695FH         LINE#         900
  C:6962H         LINE#         901
  C:696BH         LINE#         902
  C:696BH         LINE#         903
  C:6970H         LINE#         904
  C:6970H         LINE#         905
  C:6973H         LINE#         906
  C:6976H         LINE#         907
  C:6978H         LINE#         909
  C:6978H         LINE#         910
  C:697BH         LINE#         911
  C:6984H         LINE#         912
BL51 BANKED LINKER/LOCATER V6.22.2.0                                                  07/02/2021  21:25:49  PAGE 93


  C:6984H         LINE#         913
  C:6984H         LINE#         914
  C:6984H         LINE#         915
  C:6990H         LINE#         916
  C:6990H         LINE#         918
  C:6990H         LINE#         919
  C:6996H         LINE#         920
  C:6999H         LINE#         921
  C:69A5H         LINE#         922
  C:69ACH         LINE#         923
  C:69ACH         LINE#         924
  C:69B8H         LINE#         925
  C:69B8H         LINE#         927
  C:69BBH         LINE#         928
  C:69BBH         LINE#         929
  C:69C1H         LINE#         930
  C:69C4H         LINE#         931
  C:69D0H         LINE#         932
  C:69D7H         LINE#         933
  C:69D7H         LINE#         935
  C:69D8H         LINE#         936
  C:69D8H         LINE#         937
  C:69D8H         LINE#         938
  C:69D8H         LINE#         939
  C:69D8H         LINE#         940
  C:69D8H         LINE#         941
  C:69D8H         LINE#         942
  C:69D8H         LINE#         943
  C:69EEH         LINE#         944
  C:69EEH         LINE#         945
  C:69EEH         LINE#         946
  C:69F0H         LINE#         947
  C:69F0H         LINE#         948
  C:69F0H         LINE#         949
  C:69F2H         LINE#         950
  C:69F2H         LINE#         951
  C:69F4H         LINE#         952
  C:69F6H         LINE#         953
  C:69F8H         LINE#         954
  C:69F9H         LINE#         955
  C:69F9H         LINE#         956
  C:69FBH         LINE#         957
  C:69FDH         LINE#         958
  C:69FFH         LINE#         959
  C:6A00H         LINE#         960
  C:6A00H         LINE#         961
  C:6A02H         LINE#         962
  C:6A04H         LINE#         963
  C:6A06H         LINE#         964
  C:6A07H         LINE#         965
  C:6A07H         LINE#         966
  C:6A09H         LINE#         967
  C:6A0BH         LINE#         968
  C:6A0DH         LINE#         969
  C:6A0EH         LINE#         970
  C:6A0EH         LINE#         971
  C:6A0EH         LINE#         972
BL51 BANKED LINKER/LOCATER V6.22.2.0                                                  07/02/2021  21:25:49  PAGE 94


  C:6A0EH         LINE#         973
  C:6A0EH         LINE#         974
  C:6A0EH         LINE#         975
  C:6A13H         LINE#         976
  C:6A13H         LINE#         977
  C:6A1BH         LINE#         978
  C:6A1BH         LINE#         979
  C:6A1DH         LINE#         980
  C:6A1EH         LINE#         982
  C:6A1EH         LINE#         983
  C:6A21H         LINE#         984
  C:6A21H         LINE#         985
  C:6A22H         LINE#         987
  C:6A22H         LINE#         988
  C:6A28H         LINE#         989
  C:6A28H         LINE#         991
  C:6A28H         LINE#         993
  C:6A28H         LINE#         994
  -------         ENDPROC       FUNCTION_EXECUTE
  -------         PROC          KEY_PRESS
  C:3AB8H         LINE#         996
  C:3AB8H         LINE#         997
  C:3AB8H         LINE#         999
  C:3AC0H         LINE#         1000
  C:3AC0H         LINE#         1002
  C:3AC5H         LINE#         1003
  C:3AC5H         LINE#         1004
  C:3AC7H         LINE#         1005
  C:3AC9H         LINE#         1006
  C:3ACFH         LINE#         1007
  C:3ACFH         LINE#         1009
  C:3AD5H         LINE#         1010
  C:3AD7H         LINE#         1011
  C:3ADDH         LINE#         1012
  C:3ADDH         LINE#         1013
  C:3AE3H         LINE#         1014
  C:3AE3H         LINE#         1015
  C:3AE5H         LINE#         1016
  C:3AE7H         LINE#         1018
  C:3AE7H         LINE#         1020
  C:3AEAH         LINE#         1021
  C:3AEFH         LINE#         1022
  C:3AEFH         LINE#         1026
  C:3AEFH         LINE#         1027
  C:3AF2H         LINE#         1028
  C:3AF7H         LINE#         1030
  C:3AF7H         LINE#         1032
  C:3AFFH         LINE#         1033
  C:3AFFH         LINE#         1035
  C:3B04H         LINE#         1036
  C:3B04H         LINE#         1037
  C:3B15H         LINE#         1038
  C:3B17H         LINE#         1039
  C:3B1DH         LINE#         1040
  C:3B1DH         LINE#         1041
  C:3B21H         LINE#         1042
  C:3B23H         LINE#         1043
BL51 BANKED LINKER/LOCATER V6.22.2.0                                                  07/02/2021  21:25:49  PAGE 95


  C:3B2BH         LINE#         1044
  C:3B2BH         LINE#         1045
  C:3B31H         LINE#         1046
  C:3B31H         LINE#         1047
  C:3B36H         LINE#         1048
  C:3B36H         LINE#         1049
  C:3B36H         LINE#         1051
  C:3B39H         LINE#         1052
  C:3B3EH         LINE#         1054
  C:3B3EH         LINE#         1057
  C:3B49H         LINE#         1058
  C:3B49H         LINE#         1061
  C:3B4FH         LINE#         1062
  C:3B4FH         LINE#         1063
  C:3B6DH         LINE#         1064
  C:3B75H         LINE#         1065
  C:3B75H         LINE#         1066
  C:3B78H         LINE#         1068
  C:3B7AH         LINE#         1069
  C:3B8AH         LINE#         1070
  C:3B8AH         LINE#         1071
  C:3B90H         LINE#         1072
  C:3B90H         LINE#         1073
  C:3B93H         LINE#         1074
  C:3B9AH         LINE#         1075
  C:3B9AH         LINE#         1076
  C:3B9AH         LINE#         1077
  C:3B9DH         LINE#         1078
  C:3BA0H         LINE#         1079
  C:3BA6H         LINE#         1080
  C:3BA6H         LINE#         1082
  C:3BABH         LINE#         1083
  C:3BABH         LINE#         1084
  C:3BB1H         LINE#         1085
  C:3BC8H         LINE#         1086
  C:3BC8H         LINE#         1087
  C:3BDCH         LINE#         1088
  C:3BDFH         LINE#         1089
  C:3BF7H         LINE#         1090
  C:3BF7H         LINE#         1091
  C:3C0CH         LINE#         1092
  C:3C0CH         LINE#         1093
  C:3C0EH         LINE#         1095
  C:3C0EH         LINE#         1096
  C:3C0EH         LINE#         1097
  C:3C13H         LINE#         1098
  C:3C13H         LINE#         1099
  C:3C1BH         LINE#         1100
  C:3C1BH         LINE#         1101
  C:3C1BH         LINE#         1102
  C:3C1BH         LINE#         1104
  C:3C20H         LINE#         1106
  C:3C20H         LINE#         1107
  C:3C2BH         LINE#         1108
  C:3C2BH         LINE#         1111
  C:3C31H         LINE#         1112
  C:3C31H         LINE#         1113
BL51 BANKED LINKER/LOCATER V6.22.2.0                                                  07/02/2021  21:25:49  PAGE 96


  C:3C4FH         LINE#         1114
  C:3C57H         LINE#         1115
  C:3C57H         LINE#         1116
  C:3C5AH         LINE#         1118
  C:3C5CH         LINE#         1119
  C:3C6CH         LINE#         1120
  C:3C6CH         LINE#         1121
  C:3C72H         LINE#         1122
  C:3C72H         LINE#         1123
  C:3C75H         LINE#         1124
  C:3C7CH         LINE#         1125
  C:3C7CH         LINE#         1126
  C:3C7CH         LINE#         1127
  C:3C7FH         LINE#         1128
  C:3C82H         LINE#         1129
  C:3C88H         LINE#         1130
  C:3C88H         LINE#         1132
  C:3C8DH         LINE#         1133
  C:3C8DH         LINE#         1134
  C:3C93H         LINE#         1135
  C:3CAAH         LINE#         1136
  C:3CAAH         LINE#         1137
  C:3CBEH         LINE#         1138
  C:3CC1H         LINE#         1139
  C:3CDAH         LINE#         1140
  C:3CDAH         LINE#         1141
  C:3CF1H         LINE#         1142
  C:3CF1H         LINE#         1143
  C:3CF3H         LINE#         1145
  C:3CF3H         LINE#         1146
  C:3CF3H         LINE#         1147
  C:3CF8H         LINE#         1148
  C:3CF8H         LINE#         1149
  C:3D00H         LINE#         1150
  C:3D00H         LINE#         1151
  C:3D00H         LINE#         1152
  C:3D00H         LINE#         1155
  C:3D00H         LINE#         1158
  C:3D0BH         LINE#         1159
  C:3D0BH         LINE#         1162
  C:3D11H         LINE#         1163
  C:3D11H         LINE#         1164
  C:3D2AH         LINE#         1165
  C:3D32H         LINE#         1166
  C:3D32H         LINE#         1167
  C:3D35H         LINE#         1169
  C:3D37H         LINE#         1170
  C:3D47H         LINE#         1171
  C:3D47H         LINE#         1172
  C:3D4DH         LINE#         1173
  C:3D4DH         LINE#         1174
  C:3D50H         LINE#         1175
  C:3D57H         LINE#         1176
  C:3D57H         LINE#         1177
  C:3D57H         LINE#         1178
  C:3D5AH         LINE#         1179
  C:3D5DH         LINE#         1180
BL51 BANKED LINKER/LOCATER V6.22.2.0                                                  07/02/2021  21:25:49  PAGE 97


  C:3D63H         LINE#         1181
  C:3D63H         LINE#         1184
  C:3D68H         LINE#         1185
  C:3D68H         LINE#         1186
  C:3D72H         LINE#         1187
  C:3D89H         LINE#         1188
  C:3D89H         LINE#         1189
  C:3D9DH         LINE#         1190
  C:3DA0H         LINE#         1191
  C:3DB9H         LINE#         1192
  C:3DB9H         LINE#         1193
  C:3DD0H         LINE#         1194
  C:3DD0H         LINE#         1195
  C:3DD2H         LINE#         1197
  C:3DD2H         LINE#         1198
  C:3DD2H         LINE#         1199
  C:3DDAH         LINE#         1200
  C:3DDAH         LINE#         1201
  C:3DDFH         LINE#         1202
  C:3DDFH         LINE#         1203
  C:3DDFH         LINE#         1204
  C:3DDFH         LINE#         1206
  C:3DE4H         LINE#         1208
  C:3DE4H         LINE#         1209
  C:3DEFH         LINE#         1210
  C:3DEFH         LINE#         1212
  C:3DF5H         LINE#         1213
  C:3DF5H         LINE#         1214
  C:3E0EH         LINE#         1215
  C:3E16H         LINE#         1216
  C:3E16H         LINE#         1217
  C:3E19H         LINE#         1219
  C:3E1BH         LINE#         1220
  C:3E2BH         LINE#         1221
  C:3E2BH         LINE#         1222
  C:3E31H         LINE#         1223
  C:3E31H         LINE#         1224
  C:3E34H         LINE#         1225
  C:3E3BH         LINE#         1226
  C:3E3BH         LINE#         1227
  C:3E3BH         LINE#         1228
  C:3E3EH         LINE#         1229
  C:3E41H         LINE#         1230
  C:3E47H         LINE#         1231
  C:3E47H         LINE#         1234
  C:3E4CH         LINE#         1235
  C:3E4CH         LINE#         1236
  C:3E56H         LINE#         1237
  C:3E6DH         LINE#         1238
  C:3E6DH         LINE#         1239
  C:3E81H         LINE#         1240
  C:3E84H         LINE#         1241
  C:3E9DH         LINE#         1242
  C:3E9DH         LINE#         1243
  C:3EB4H         LINE#         1244
  C:3EB4H         LINE#         1245
  C:3EB6H         LINE#         1247
BL51 BANKED LINKER/LOCATER V6.22.2.0                                                  07/02/2021  21:25:49  PAGE 98


  C:3EB6H         LINE#         1248
  C:3EB6H         LINE#         1249
  C:3EBEH         LINE#         1250
  C:3EBEH         LINE#         1251
  C:3EC3H         LINE#         1252
  C:3EC3H         LINE#         1253
  C:3EC3H         LINE#         1254
  C:3EC3H         LINE#         1257
  C:3EC3H         LINE#         1261
  C:3ED0H         LINE#         1262
  C:3ED0H         LINE#         1263
  C:3ED3H         LINE#         1264
  C:3ED4H         LINE#         1265
  C:3EDFH         LINE#         1266
  C:3EDFH         LINE#         1267
  C:3EE4H         LINE#         1268
  C:3EE4H         LINE#         1270
  -------         ENDPROC       KEY_PRESS
  C:6FB3H         SYMBOL        L?0478
  -------         PROC          _TOP_MENU
  X:00E9H         SYMBOL        set_temp
  X:00EBH         SYMBOL        iron_temp
  X:00EDH         SYMBOL        sys_temp
  X:00EEH         SYMBOL        vin
  X:00EFH         SYMBOL        pwm_duty
  C:6EB1H         LINE#         1272
  C:6EC2H         LINE#         1273
  C:6EC2H         LINE#         1274
  C:6EC5H         LINE#         1275
  C:6EC8H         LINE#         1276
  C:6ECBH         LINE#         1277
  C:6ED4H         LINE#         1278
  C:6ED4H         LINE#         1280
  C:6EDDH         LINE#         1281
  C:6EF5H         LINE#         1282
  C:6EFEH         LINE#         1285
  C:6F1FH         LINE#         1286
  C:6F1FH         LINE#         1287
  C:6F24H         LINE#         1288
  C:6F29H         LINE#         1289
  C:6F2BH         LINE#         1291
  C:6F2BH         LINE#         1292
  C:6F30H         LINE#         1293
  C:6F30H         LINE#         1294
  C:6F40H         LINE#         1295
  C:6F5AH         LINE#         1296
  C:6F6AH         LINE#         1298
  C:6F79H         LINE#         1300
  C:6F86H         LINE#         1302
  C:6F92H         LINE#         1303
  C:6FA6H         LINE#         1304
  C:6FA6H         LINE#         1305
  C:6FADH         LINE#         1306
  C:6FADH         LINE#         1308
  C:6FADH         LINE#         1310
  C:6FADH         LINE#         1312
  C:6FB2H         LINE#         1313
BL51 BANKED LINKER/LOCATER V6.22.2.0                                                  07/02/2021  21:25:49  PAGE 99


  C:6FB2H         LINE#         1314
  -------         ENDPROC       _TOP_MENU
  -------         PROC          SHOW_MENU
  C:762CH         LINE#         1316
  C:762CH         LINE#         1317
  C:762CH         LINE#         1318
  C:7632H         LINE#         1319
  C:7632H         LINE#         1321
  C:7635H         LINE#         1322
  C:7635H         LINE#         1323
  C:763DH         LINE#         1324
  C:763DH         LINE#         1327
  C:7648H         LINE#         1328
  C:7648H         LINE#         1329
  C:7656H         LINE#         1330
  C:7658H         LINE#         1332
  C:7658H         LINE#         1333
  C:7667H         LINE#         1334
  C:7667H         LINE#         1335
  C:7673H         LINE#         1336
  C:7673H         LINE#         1337
  C:767BH         LINE#         1338
  C:767BH         LINE#         1339
  C:7689H         LINE#         1340
  C:7689H         LINE#         1341
  C:7696H         LINE#         1342
  C:76A4H         LINE#         1343
  C:76B2H         LINE#         1344
  C:76C2H         LINE#         1345
  C:76C2H         LINE#         1347
  C:76C2H         LINE#         1349
  C:76CDH         LINE#         1350
  C:76DAH         LINE#         1351
  C:76E2H         LINE#         1352
  C:76E2H         LINE#         1354
  C:76E2H         LINE#         1356
  -------         ENDPROC       SHOW_MENU
  -------         ENDMOD        USER_MENU

  -------         MODULE        USER_ADC
  C:0000H         SYMBOL        _ICE_DUMMY_
  D:0080H         PUBLIC        P0
  D:0090H         PUBLIC        P1
  D:00A0H         PUBLIC        P2
  D:00B0H         PUBLIC        P3
  D:00C0H         PUBLIC        P4
  D:00C8H         PUBLIC        P5
  X:0299H         PUBLIC        iron_k
  D:00A8H         PUBLIC        IE
  D:00B8H         PUBLIC        IP
  D:00D8H         PUBLIC        CCON
  C:848FH         PUBLIC        adc_sys_temp_get
  X:02A9H         PUBLIC        filter_buf
  X:02C3H         PUBLIC        error_flag
  X:02C4H         PUBLIC        low_battery_flag
  D:0098H         PUBLIC        SCON
  D:0088H         PUBLIC        TCON
BL51 BANKED LINKER/LOCATER V6.22.2.0                                                  07/02/2021  21:25:49  PAGE 100


  C:8741H         PUBLIC        _adc_get_filter
  X:02C5H         PUBLIC        adc_iron_flag
  X:02C6H         PUBLIC        Iron_temp_last
  C:4DCBH         PUBLIC        _adc_iron_temp
  C:0026H         PUBLIC        user_adc_init
  X:02CAH         PUBLIC        Iron_temp_now
  X:02CEH         PUBLIC        SHOW_IRON_TEMP
  C:5E17H         PUBLIC        adc_vin_get
  D:00D0H         PUBLIC        PSW
  X:02D2H         PUBLIC        iron_b
  C:7832H         SYMBOL        Com002F
  C:7832H         SYMBOL        L?0048
  C:7832H         SYMBOL        L?0049
  C:783BH         SYMBOL        L?0050
  C:783EH         SYMBOL        L?0051
  C:7847H         SYMBOL        L?0052
  C:7860H         SYMBOL        L?0053
  C:786CH         SYMBOL        L?0054
  C:786CH         SYMBOL        L?0055
  C:786FH         SYMBOL        L?0056
  C:7878H         SYMBOL        L?0057
  C:7879H         SYMBOL        L?0058
  C:787BH         SYMBOL        L?0059
  C:7887H         SYMBOL        L?0060
  C:7887H         SYMBOL        L?0061
  C:7896H         SYMBOL        L?0062
  C:7896H         SYMBOL        L?0063
  C:78A0H         SYMBOL        L?0064
  C:78A2H         SYMBOL        L?0065
  C:78AAH         SYMBOL        L?0066
  C:78B2H         SYMBOL        L?0067
  C:78B2H         SYMBOL        L?0068
  C:78BCH         SYMBOL        L?0069
  C:78C0H         SYMBOL        L?0070
  C:78C6H         SYMBOL        L?0071
  -------         PROC          COM002F
  -------         ENDPROC       COM002F
  -------         PROC          USER_ADC_INIT
  C:0026H         LINE#         56
  C:0026H         LINE#         57
  C:0026H         LINE#         58
  C:002DH         LINE#         59
  C:0034H         LINE#         60
  -------         ENDPROC       USER_ADC_INIT
  -------         PROC          ADC_VIN_GET
  -------         DO            
  X:00F4H         SYMBOL        vin_ad
  X:00F8H         SYMBOL        temp
  X:00FCH         SYMBOL        ad_array
  D:0006H         SYMBOL        vin_data
  X:01C8H         SYMBOL        i
  X:01CAH         SYMBOL        j
  -------         ENDDO         
  C:5E17H         LINE#         63
  C:5E17H         LINE#         64
  C:5E17H         LINE#         65
  C:5E21H         LINE#         67
BL51 BANKED LINKER/LOCATER V6.22.2.0                                                  07/02/2021  21:25:49  PAGE 101


  C:5E28H         LINE#         68
  C:5E2EH         LINE#         73
  C:5E51H         LINE#         78
  C:5E58H         LINE#         79
  C:5E58H         LINE#         80
  C:5E7EH         LINE#         81
  C:5E98H         LINE#         82
  C:5E9FH         LINE#         83
  C:5E9FH         LINE#         84
  C:5ECDH         LINE#         85
  C:5ECDH         LINE#         86
  C:5F0AH         LINE#         87
  C:5F0AH         LINE#         88
  C:5F26H         LINE#         89
  C:5F50H         LINE#         90
  C:5F7CH         LINE#         91
  C:5F7CH         LINE#         92
  C:5F8DH         LINE#         93
  C:5FAAH         LINE#         94
  C:5FB0H         LINE#         95
  -------         ENDPROC       ADC_VIN_GET
  -------         PROC          ADC_SYS_TEMP_GET
  -------         DO            
  D:0004H         SYMBOL        temp
  X:00EFH         SYMBOL        resister
  D:0006H         SYMBOL        temp_data_sys
  -------         ENDDO         
  C:848FH         LINE#         97
  C:848FH         LINE#         98
  C:848FH         LINE#         99
  C:8499H         LINE#         100
  C:849FH         LINE#         101
  C:84C6H         LINE#         102
  -------         ENDPROC       ADC_SYS_TEMP_GET
  -------         PROC          _ADC_GET_FILTER
  D:0006H         SYMBOL        get_init_data
  -------         DO            
  D:0005H         SYMBOL        filter_count
  D:0002H         SYMBOL        filter_sum
  -------         ENDDO         
  C:8741H         LINE#         110
  C:8741H         LINE#         111
  C:8741H         LINE#         115
  C:8743H         LINE#         116
  C:8745H         LINE#         117
  C:874DH         LINE#         118
  C:8757H         LINE#         119
  C:8757H         LINE#         121
  C:8770H         LINE#         122
  C:877CH         LINE#         123
  C:877FH         LINE#         124
  -------         ENDPROC       _ADC_GET_FILTER
  -------         PROC          _ADC_IRON_TEMP
  X:00E9H         SYMBOL        temp_data
  -------         DO            
  X:00EBH         SYMBOL        temp
  -------         ENDDO         
BL51 BANKED LINKER/LOCATER V6.22.2.0                                                  07/02/2021  21:25:49  PAGE 102


  C:4DCBH         LINE#         151
  C:4DD3H         LINE#         152
  C:4DD3H         LINE#         153
  C:4DDBH         LINE#         155
  C:4DFCH         LINE#         156
  C:4DFCH         LINE#         157
  C:4E02H         LINE#         158
  C:4E22H         LINE#         159
  C:4E22H         LINE#         161
  C:4E2CH         LINE#         162
  C:4E2FH         LINE#         163
  C:4E6AH         LINE#         164
  C:4E6AH         LINE#         165
  C:4E92H         LINE#         166
  C:4EA9H         LINE#         167
  C:4EB8H         LINE#         168
  C:4EBBH         LINE#         169
  C:4EF8H         LINE#         170
  C:4EF8H         LINE#         171
  C:4F20H         LINE#         172
  C:4F3AH         LINE#         173
  C:4F49H         LINE#         174
  C:4F4CH         LINE#         175
  C:4F8CH         LINE#         176
  C:4F8CH         LINE#         177
  C:4FB7H         LINE#         178
  C:4FD6H         LINE#         179
  C:4FE5H         LINE#         180
  C:4FE8H         LINE#         181
  C:502BH         LINE#         182
  C:502BH         LINE#         183
  C:5056H         LINE#         184
  C:5075H         LINE#         185
  C:5090H         LINE#         186
  C:5090H         LINE#         187
  C:50A2H         LINE#         193
  C:50B8H         LINE#         194
  C:50B8H         LINE#         195
  C:50C1H         LINE#         196
  C:50C3H         LINE#         198
  C:50C3H         LINE#         199
  C:50CDH         LINE#         200
  C:50CDH         LINE#         201
  C:50D9H         LINE#         202
  C:50D9H         LINE#         204
  C:50D9H         LINE#         205
  C:50DEH         LINE#         206
  C:50E2H         LINE#         207
  C:50E2H         LINE#         208
  -------         ENDPROC       _ADC_IRON_TEMP
  -------         ENDMOD        USER_ADC

  -------         MODULE        USER_PID
  C:0000H         SYMBOL        _ICE_DUMMY_
  D:0080H         PUBLIC        P0
  D:0090H         PUBLIC        P1
  D:00A0H         PUBLIC        P2
BL51 BANKED LINKER/LOCATER V6.22.2.0                                                  07/02/2021  21:25:49  PAGE 103


  D:00B0H         PUBLIC        P3
  D:00C0H         PUBLIC        P4
  D:00C8H         PUBLIC        P5
  X:0307H         PUBLIC        Feedback
  X:030BH         PUBLIC        Integration
  D:00A8H         PUBLIC        IE
  X:030FH         PUBLIC        Pwmduty_Out
  D:00B8H         PUBLIC        IP
  D:00D8H         PUBLIC        CCON
  X:0313H         PUBLIC        Temp_Set
  X:0317H         PUBLIC        Ek
  C:8967H         PUBLIC        pwm_out_get
  D:0098H         PUBLIC        SCON
  D:0088H         PUBLIC        TCON
  X:0323H         PUBLIC        pwm_duty_out
  C:667BH         PUBLIC        _iron_temp_control
  C:8CE2H         PUBLIC        ALL_PWM_init
  X:0327H         PUBLIC        pwm_flag
  D:00D0H         PUBLIC        PSW
  C:8B33H         SYMBOL        Com000F
  C:8B33H         SYMBOL        L?0016
  C:8B3AH         SYMBOL        L?0017
  C:8B3DH         SYMBOL        L?0018
  C:8B49H         SYMBOL        L?0019
  C:8B49H         SYMBOL        L?0020
  C:8B55H         SYMBOL        L?0021
  -------         PROC          COM000F
  -------         ENDPROC       COM000F
  -------         PROC          ALL_PWM_INIT
  C:8CE2H         LINE#         53
  C:8CE2H         LINE#         54
  C:8CE2H         LINE#         55
  C:8CF8H         LINE#         56
  -------         ENDPROC       ALL_PWM_INIT
  -------         PROC          _IRON_TEMP_CONTROL
  X:00F0H         SYMBOL        set_temp
  X:00F4H         SYMBOL        get_temp
  -------         DO            
  X:00F8H         SYMBOL        pwm_out
  -------         ENDDO         
  C:667BH         LINE#         60
  C:6681H         LINE#         61
  C:6681H         LINE#         63
  C:669CH         LINE#         64
  C:669CH         LINE#         65
  C:66A6H         LINE#         66
  C:66A9H         LINE#         68
  C:66A9H         LINE#         69
  C:66BEH         LINE#         70
  C:66D3H         LINE#         71
  C:66E7H         LINE#         72
  C:66FBH         LINE#         73
  C:6778H         LINE#         77
  C:6782H         LINE#         78
  C:678CH         LINE#         79
  C:678CH         LINE#         80
  C:67A1H         LINE#         81
BL51 BANKED LINKER/LOCATER V6.22.2.0                                                  07/02/2021  21:25:49  PAGE 104


  C:67A1H         LINE#         82
  C:67ABH         LINE#         83
  C:67ADH         LINE#         84
  C:67BDH         LINE#         85
  C:67BDH         LINE#         86
  C:67C7H         LINE#         87
  C:67C7H         LINE#         88
  C:67CDH         LINE#         89
  -------         ENDPROC       _IRON_TEMP_CONTROL
  -------         PROC          PWM_OUT_GET
  C:8967H         LINE#         90
  C:8967H         LINE#         91
  C:8967H         LINE#         92
  C:8982H         LINE#         94
  C:898AH         LINE#         95
  C:898AH         LINE#         96
  C:8997H         LINE#         98
  C:8999H         LINE#         99
  C:899FH         LINE#         100
  C:899FH         LINE#         101
  C:89A6H         LINE#         103
  C:89A6H         LINE#         105
  -------         ENDPROC       PWM_OUT_GET
  -------         ENDMOD        USER_PID

  -------         MODULE        USER_BUTTON
  C:0000H         SYMBOL        _ICE_DUMMY_
  X:02E2H         PUBLIC        oled_off_on_flag
  D:0080H         PUBLIC        P0
  D:0090H         PUBLIC        P1
  D:00A0H         PUBLIC        P2
  D:00B0H         PUBLIC        P3
  D:00C0H         PUBLIC        P4
  D:00C8H         PUBLIC        P5
  X:02E3H         PUBLIC        ADC_GET_FLAG
  X:02E4H         PUBLIC        PWM_CONT
  X:02E5H         PUBLIC        SLEEP_INIT_FLAG
  D:00A8H         PUBLIC        IE
  X:02E6H         PUBLIC        key_hold_ms
  X:02E8H         PUBLIC        shutdown_cont
  X:02EAH         PUBLIC        sleep_flag
  D:00B8H         PUBLIC        IP
  X:02EBH         PUBLIC        enter_flag
  C:8A57H         PUBLIC        key_press_handler
  X:02ECH         PUBLIC        oled_light_flag
  X:02EDH         PUBLIC        oled_off_second
  X:02EFH         PUBLIC        mode_flag
  D:00D8H         PUBLIC        CCON
  X:02F0H         PUBLIC        sleep_long_flah
  X:02F1H         PUBLIC        sleep_short_flag
  B:0080H.2       PUBLIC        P02
  X:02F2H         PUBLIC        BEEP_CONT
  X:02F3H         PUBLIC        sleep_cont
  D:0098H         PUBLIC        SCON
  B:0080H.4       PUBLIC        P04
  D:0088H         PUBLIC        TCON
  B:0080H.5       PUBLIC        P05
BL51 BANKED LINKER/LOCATER V6.22.2.0                                                  07/02/2021  21:25:49  PAGE 105


  C:8F8AH         PUBLIC        adc_iron_get_handle
  C:8F6EH         PUBLIC        button_init
  X:02F5H         PUBLIC        down_flag
  B:00B0H.7       PUBLIC        P37
  X:02F6H         PUBLIC        quit_flag
  X:02F7H         PUBLIC        down_long_flag
  X:02F8H         PUBLIC        down_short_flag
  X:02F9H         PUBLIC        olde_off_cont
  X:02FBH         PUBLIC        auto_oled_off_flag
  X:02FCH         PUBLIC        iron_ad
  C:50E3H         PUBLIC        TM1_Isr
  X:02FEH         PUBLIC        shutdown_second
  X:0300H         PUBLIC        up_flag
  C:8A1DH         PUBLIC        TM3_Isr
  C:8125H         PUBLIC        TM4_Isr
  X:0301H         PUBLIC        auto_power_off_flag
  D:00EFH         PUBLIC        AUXINTIF
  C:8C2FH         PUBLIC        OLED_sleep_handle
  X:0302H         PUBLIC        oled_handle_flag
  X:0303H         PUBLIC        up_long_flag
  X:0304H         PUBLIC        up_short_flag
  D:00D0H         PUBLIC        PSW
  X:0305H         PUBLIC        sleep_second
  C:87D1H         SYMBOL        Com0057
  C:87D1H         SYMBOL        L?0088
  C:87D1H         SYMBOL        L?0089
  C:87D9H         SYMBOL        L?0090
  C:87DAH         SYMBOL        L?0091
  C:87E2H         SYMBOL        L?0092
  C:87E2H         SYMBOL        L?0093
  C:87EDH         SYMBOL        L?0094
  C:87FDH         SYMBOL        L?0095
  C:8809H         SYMBOL        L?0096
  C:8809H         SYMBOL        L?0097
  C:8811H         SYMBOL        L?0098
  C:8811H         SYMBOL        L?0099
  -------         PROC          COM0057
  -------         ENDPROC       COM0057
  -------         PROC          BUTTON_INIT
  C:8F6EH         LINE#         82
  C:8F6EH         LINE#         83
  C:8F6EH         LINE#         85
  C:8F75H         LINE#         86
  C:8F7CH         LINE#         87
  C:8F83H         LINE#         88
  -------         ENDPROC       BUTTON_INIT
  -------         PROC          KEY_PRESS_HANDLER
  C:8A57H         LINE#         92
  C:8A57H         LINE#         93
  C:8A57H         LINE#         94
  C:8A5AH         LINE#         95
  C:8A5AH         LINE#         97
  C:8A60H         LINE#         98
  C:8A62H         LINE#         100
  C:8A62H         LINE#         101
  C:8A67H         LINE#         102
  C:8A67H         LINE#         103
BL51 BANKED LINKER/LOCATER V6.22.2.0                                                  07/02/2021  21:25:49  PAGE 106


  C:8A6AH         LINE#         104
  C:8A6AH         LINE#         106
  C:8A70H         LINE#         107
  C:8A70H         LINE#         109
  C:8A73H         LINE#         110
  C:8A73H         LINE#         112
  C:8A79H         LINE#         113
  C:8A7BH         LINE#         115
  C:8A7BH         LINE#         116
  C:8A80H         LINE#         117
  C:8A80H         LINE#         118
  C:8A83H         LINE#         119
  C:8A83H         LINE#         121
  C:8A89H         LINE#         122
  C:8A8AH         LINE#         124
  C:8A8AH         LINE#         125
  C:8A8FH         LINE#         126
  C:8A8FH         LINE#         128
  -------         ENDPROC       KEY_PRESS_HANDLER
  -------         PROC          TM1_ISR
  C:50E3H         LINE#         132
  C:5100H         LINE#         137
  C:5108H         LINE#         138
  C:5108H         LINE#         139
  C:510BH         LINE#         140
  C:510BH         LINE#         141
  C:5116H         LINE#         142
  C:5122H         LINE#         143
  C:5122H         LINE#         144
  C:5127H         LINE#         146
  C:5127H         LINE#         147
  C:5129H         LINE#         149
  C:5129H         LINE#         150
  C:5139H         LINE#         151
  C:5139H         LINE#         152
  C:513CH         LINE#         153
  C:5141H         LINE#         154
  C:5146H         LINE#         155
  C:5148H         LINE#         156
  C:5153H         LINE#         157
  C:5153H         LINE#         158
  C:5156H         LINE#         159
  C:515AH         LINE#         160
  C:515CH         LINE#         163
  C:515CH         LINE#         164
  C:515FH         LINE#         165
  C:515FH         LINE#         166
  C:517BH         LINE#         167
  C:517BH         LINE#         168
  C:5180H         LINE#         169
  C:5180H         LINE#         171
  C:5180H         LINE#         173
  C:5180H         LINE#         176
  C:5188H         LINE#         177
  C:5188H         LINE#         178
  C:518BH         LINE#         179
  C:518BH         LINE#         181
BL51 BANKED LINKER/LOCATER V6.22.2.0                                                  07/02/2021  21:25:49  PAGE 107


  C:5190H         LINE#         182
  C:5190H         LINE#         183
  C:5198H         LINE#         184
  C:519AH         LINE#         185
  C:51A1H         LINE#         186
  C:51A1H         LINE#         187
  C:51A4H         LINE#         188
  C:51A8H         LINE#         189
  C:51A8H         LINE#         190
  C:51A8H         LINE#         191
  C:51AAH         LINE#         193
  C:51AAH         LINE#         194
  C:51AFH         LINE#         195
  C:51AFH         LINE#         196
  C:51B3H         LINE#         197
  C:51B8H         LINE#         198
  C:51BCH         LINE#         199
  C:51C1H         LINE#         200
  C:51C1H         LINE#         202
  C:51C1H         LINE#         204
  C:51C3H         LINE#         206
  C:51C3H         LINE#         207
  C:51C6H         LINE#         208
  C:51C6H         LINE#         209
  C:51CBH         LINE#         210
  C:51CBH         LINE#         211
  C:51CBH         LINE#         214
  C:51D3H         LINE#         215
  C:51D3H         LINE#         217
  C:51D6H         LINE#         218
  C:51D6H         LINE#         220
  C:51DBH         LINE#         221
  C:51DBH         LINE#         222
  C:51E3H         LINE#         223
  C:51E5H         LINE#         224
  C:51ECH         LINE#         225
  C:51ECH         LINE#         226
  C:51EFH         LINE#         227
  C:51F3H         LINE#         228
  C:51F3H         LINE#         229
  C:51F3H         LINE#         230
  C:51F5H         LINE#         232
  C:51F5H         LINE#         234
  C:51FAH         LINE#         235
  C:51FAH         LINE#         236
  C:51FEH         LINE#         237
  C:5203H         LINE#         238
  C:5207H         LINE#         239
  C:520CH         LINE#         240
  C:520CH         LINE#         242
  C:520CH         LINE#         244
  C:520EH         LINE#         246
  C:520EH         LINE#         247
  C:5211H         LINE#         248
  C:5211H         LINE#         249
  C:5216H         LINE#         250
  C:5216H         LINE#         251
BL51 BANKED LINKER/LOCATER V6.22.2.0                                                  07/02/2021  21:25:49  PAGE 108


  C:5216H         LINE#         253
  C:5221H         LINE#         254
  C:5221H         LINE#         255
  C:5230H         LINE#         256
  C:5230H         LINE#         258
  C:523EH         LINE#         259
  C:524AH         LINE#         260
  C:524AH         LINE#         261
  C:5258H         LINE#         262
  C:525FH         LINE#         263
  C:525FH         LINE#         264
  C:527DH         LINE#         265
  C:527DH         LINE#         266
  C:5289H         LINE#         267
  C:5289H         LINE#         268
  C:528EH         LINE#         269
  C:52A0H         LINE#         270
  C:52A7H         LINE#         271
  C:52ACH         LINE#         272
  C:52B0H         LINE#         274
  C:52B0H         LINE#         277
  C:52B0H         LINE#         278
  C:52B0H         LINE#         280
  C:52BCH         LINE#         281
  C:52BCH         LINE#         282
  C:52CAH         LINE#         283
  C:52D6H         LINE#         284
  C:52D6H         LINE#         285
  C:52E4H         LINE#         286
  C:52EBH         LINE#         287
  C:52EBH         LINE#         288
  C:52FDH         LINE#         289
  C:52FDH         LINE#         291
  C:5303H         LINE#         292
  C:530AH         LINE#         293
  C:530EH         LINE#         294
  C:5313H         LINE#         295
  C:5313H         LINE#         297
  C:5313H         LINE#         298
  C:531EH         LINE#         299
  C:531EH         LINE#         300
  C:532CH         LINE#         301
  C:5338H         LINE#         302
  C:5338H         LINE#         303
  C:5346H         LINE#         304
  C:534DH         LINE#         305
  C:534DH         LINE#         306
  C:5359H         LINE#         307
  C:5359H         LINE#         308
  C:535EH         LINE#         309
  C:5362H         LINE#         310
  C:5369H         LINE#         311
  C:5369H         LINE#         312
  C:5369H         LINE#         314
  C:536BH         LINE#         316
  C:536BH         LINE#         317
  C:5372H         LINE#         318
BL51 BANKED LINKER/LOCATER V6.22.2.0                                                  07/02/2021  21:25:49  PAGE 109


  C:5378H         LINE#         319
  C:537CH         LINE#         320
  C:5382H         LINE#         321
  C:5388H         LINE#         322
  C:538CH         LINE#         323
  C:5390H         LINE#         324
  C:5394H         LINE#         325
  C:539CH         LINE#         326
  C:539CH         LINE#         328
  C:53A1H         LINE#         330
  C:53A6H         LINE#         331
  C:53A6H         LINE#         333
  C:53A6H         LINE#         334
  C:53ACH         LINE#         335
  C:53ACH         LINE#         336
  C:53B1H         LINE#         337
  C:53B5H         LINE#         338
  C:53B5H         LINE#         339
  -------         ENDPROC       TM1_ISR
  -------         PROC          TM4_ISR
  C:8125H         LINE#         341
  C:8132H         LINE#         344
  C:8138H         LINE#         345
  C:813DH         LINE#         346
  C:813DH         LINE#         347
  C:815FH         LINE#         348
  C:815FH         LINE#         349
  C:8170H         LINE#         351
  C:8170H         LINE#         352
  C:8175H         LINE#         353
  C:8175H         LINE#         354
  C:8183H         LINE#         355
  C:8183H         LINE#         356
  C:8188H         LINE#         358
  C:8188H         LINE#         359
  C:818BH         LINE#         360
  -------         ENDPROC       TM4_ISR
  -------         PROC          TM3_ISR
  C:8A1DH         LINE#         361
  C:8A2CH         LINE#         363
  C:8A34H         LINE#         364
  C:8A34H         LINE#         365
  C:8A3AH         LINE#         366
  C:8A3FH         LINE#         367
  C:8A3FH         LINE#         368
  C:8A43H         LINE#         369
  C:8A47H         LINE#         371
  C:8A47H         LINE#         372
  C:8A47H         LINE#         373
  C:8A4AH         LINE#         374
  -------         ENDPROC       TM3_ISR
  -------         PROC          ADC_IRON_GET_HANDLE
  C:8F8AH         LINE#         376
  C:8F8AH         LINE#         377
  C:8F8AH         LINE#         378
  C:8F92H         LINE#         379
  C:8F92H         LINE#         380
BL51 BANKED LINKER/LOCATER V6.22.2.0                                                  07/02/2021  21:25:49  PAGE 110


  C:8FA0H         LINE#         381
  C:8FA5H         LINE#         382
  C:8FA5H         LINE#         383
  -------         ENDPROC       ADC_IRON_GET_HANDLE
  -------         PROC          OLED_SLEEP_HANDLE
  C:8C2FH         LINE#         385
  C:8C2FH         LINE#         386
  C:8C2FH         LINE#         387
  C:8C37H         LINE#         388
  C:8C37H         LINE#         389
  C:8C3FH         LINE#         390
  C:8C44H         LINE#         391
  C:8C46H         LINE#         393
  C:8C46H         LINE#         394
  C:8C4FH         LINE#         395
  C:8C5DH         LINE#         396
  C:8C5DH         LINE#         397
  -------         ENDPROC       OLED_SLEEP_HANDLE
  -------         ENDMOD        USER_BUTTON

  -------         MODULE        USER_EEPROM
  C:0000H         SYMBOL        _ICE_DUMMY_
  C:8FF2H         PUBLIC        _eeprom_erase
  D:0080H         PUBLIC        P0
  D:0090H         PUBLIC        P1
  D:00A0H         PUBLIC        P2
  D:00B0H         PUBLIC        P3
  D:00C0H         PUBLIC        P4
  D:00C8H         PUBLIC        P5
  C:8FC0H         PUBLIC        _eeprom_read
  D:00A8H         PUBLIC        IE
  D:00B8H         PUBLIC        IP
  C:8FD9H         PUBLIC        _eeprom_write
  D:00D8H         PUBLIC        CCON
  D:0098H         PUBLIC        SCON
  D:0088H         PUBLIC        TCON
  D:00D0H         PUBLIC        PSW
  C:8EBBH         SYMBOL        Com0004
  C:8EBBH         SYMBOL        L?0005
  C:8ECCH         SYMBOL        L?0006
  -------         PROC          COM0004
  -------         ENDPROC       COM0004
  -------         PROC          _EEPROM_READ
  X:00E9H         SYMBOL        addr
  X:00EBH         SYMBOL        buf
  X:00EEH         SYMBOL        len
  C:8FC0H         LINE#         43
  C:8FC6H         LINE#         44
  C:8FC6H         LINE#         45
  C:8FC9H         LINE#         46
  C:8FD6H         LINE#         47
  -------         ENDPROC       _EEPROM_READ
  -------         PROC          _EEPROM_WRITE
  X:00E9H         SYMBOL        addr
  X:00EBH         SYMBOL        buf
  X:00EEH         SYMBOL        len
  C:8FD9H         LINE#         49
BL51 BANKED LINKER/LOCATER V6.22.2.0                                                  07/02/2021  21:25:49  PAGE 111


  C:8FDFH         LINE#         50
  C:8FDFH         LINE#         53
  C:8FE2H         LINE#         55
  C:8FEFH         LINE#         56
  -------         ENDPROC       _EEPROM_WRITE
  -------         PROC          _EEPROM_ERASE
  X:00E9H         SYMBOL        addr
  C:8FF2H         LINE#         60
  C:8FFAH         LINE#         61
  C:8FFAH         LINE#         62
  C:8FFDH         LINE#         63
  C:9008H         LINE#         64
  -------         ENDPROC       _EEPROM_ERASE
  -------         ENDMOD        USER_EEPROM

  -------         MODULE        USER_LIB_IIC
  C:0000H         SYMBOL        _ICE_DUMMY_
  B:0021H.1       PUBLIC        user_iic_busy
  D:0080H         PUBLIC        P0
  D:0090H         PUBLIC        P1
  D:00A0H         PUBLIC        P2
  D:00B0H         PUBLIC        P3
  D:00C0H         PUBLIC        P4
  D:00C8H         PUBLIC        P5
  C:8F19H         PUBLIC        _user_iic_write_reg
  D:00BAH         PUBLIC        P_SW2
  D:00A8H         PUBLIC        IE
  C:919EH         PUBLIC        suer_iic_SendACK
  D:00B8H         PUBLIC        IP
  C:910EH         PUBLIC        user_iic_RecvACK
  C:9188H         PUBLIC        user_iic_SendNAK
  D:00D8H         PUBLIC        CCON
  D:0098H         PUBLIC        SCON
  D:0088H         PUBLIC        TCON
  C:90FDH         PUBLIC        _user_iic_SendData
  C:90C4H         PUBLIC        user_iic_RecvData
  C:916EH         PUBLIC        user_iic_Start
  C:905EH         PUBLIC        user_iic_delay
  C:8C8BH         PUBLIC        I2C_Isr
  C:0046H         PUBLIC        user_iic_Wait
  C:9177H         PUBLIC        user_iic_Stop
  C:8EDBH         PUBLIC        user_iic_init
  D:00D0H         PUBLIC        PSW
  C:9122H         SYMBOL        Com0014
  C:9122H         SYMBOL        L?0021
  -------         PROC          COM0014
  -------         ENDPROC       COM0014
  -------         PROC          I2C_ISR
  -------         DO            
  D:0007H         SYMBOL        store
  -------         ENDDO         
  C:8C8BH         LINE#         11
  C:8C98H         LINE#         15
  C:8C9AH         LINE#         16
  C:8C9DH         LINE#         17
  C:8CA4H         LINE#         18
  C:8CA4H         LINE#         19
BL51 BANKED LINKER/LOCATER V6.22.2.0                                                  07/02/2021  21:25:49  PAGE 112


  C:8CA8H         LINE#         20
  C:8CAAH         LINE#         21
  C:8CAAH         LINE#         22
  C:8CACH         LINE#         23
  -------         ENDPROC       I2C_ISR
  -------         PROC          USER_IIC_DELAY
  -------         DO            
  D:0006H         SYMBOL        i
  -------         ENDDO         
  C:905EH         LINE#         24
  C:905EH         LINE#         25
  C:905EH         LINE#         28
  C:9061H         LINE#         29
  C:9061H         LINE#         30
  C:9062H         LINE#         31
  C:9063H         LINE#         32
  C:9064H         LINE#         33
  C:9065H         LINE#         34
  C:9070H         LINE#         35
  -------         ENDPROC       USER_IIC_DELAY
  -------         PROC          USER_IIC_WAIT
  C:0046H         LINE#         36
  C:0046H         LINE#         37
  C:0046H         LINE#         38
  C:004DH         LINE#         39
  C:0051H         LINE#         40
  -------         ENDPROC       USER_IIC_WAIT
  -------         PROC          USER_IIC_START
  C:916EH         LINE#         41
  C:916EH         LINE#         42
  C:916EH         LINE#         43
  C:9174H         LINE#         44
  -------         ENDPROC       USER_IIC_START
  -------         PROC          _USER_IIC_SENDDATA
  D:0007H         SYMBOL        dat
  C:90FDH         LINE#         46
  C:90FDH         LINE#         47
  C:90FDH         LINE#         48
  C:9102H         LINE#         49
  C:9108H         LINE#         50
  -------         ENDPROC       _USER_IIC_SENDDATA
  -------         PROC          L?0022
  -------         ENDPROC       L?0022
  -------         PROC          USER_IIC_RECVACK
  C:910EH         LINE#         52
  C:910EH         LINE#         53
  C:910EH         LINE#         54
  C:9114H         LINE#         55
  -------         ENDPROC       USER_IIC_RECVACK
  -------         PROC          USER_IIC_RECVDATA
  C:90C4H         LINE#         57
  C:90C4H         LINE#         58
  C:90C4H         LINE#         59
  C:90CAH         LINE#         60
  C:90CDH         LINE#         61
  C:90D2H         LINE#         62
  -------         ENDPROC       USER_IIC_RECVDATA
BL51 BANKED LINKER/LOCATER V6.22.2.0                                                  07/02/2021  21:25:49  PAGE 113


  -------         PROC          SUER_IIC_SENDACK
  C:919EH         LINE#         63
  C:919EH         LINE#         64
  C:919EH         LINE#         65
  C:919FH         LINE#         66
  C:91A2H         LINE#         67
  -------         ENDPROC       SUER_IIC_SENDACK
  -------         PROC          USER_IIC_SENDNAK
  C:9188H         LINE#         70
  C:9188H         LINE#         71
  C:9188H         LINE#         72
  C:918AH         LINE#         73
  C:918DH         LINE#         74
  -------         ENDPROC       USER_IIC_SENDNAK
  -------         PROC          USER_IIC_STOP
  C:9177H         LINE#         76
  C:9177H         LINE#         77
  C:9177H         LINE#         78
  C:917DH         LINE#         79
  -------         ENDPROC       USER_IIC_STOP
  -------         PROC          USER_IIC_INIT
  C:8EDBH         LINE#         81
  C:8EDBH         LINE#         82
  C:8EDBH         LINE#         84
  C:8EE2H         LINE#         85
  C:8EE9H         LINE#         86
  C:8EEDH         LINE#         87
  C:8EF1H         LINE#         88
  C:8EF5H         LINE#         89
  C:8EFAH         LINE#         91
  -------         ENDPROC       USER_IIC_INIT
  -------         PROC          _USER_IIC_WRITE_REG
  D:0007H         SYMBOL        dev_add
  D:0005H         SYMBOL        reg
  D:0003H         SYMBOL        dat
  C:8F19H         LINE#         93
  C:8F19H         LINE#         94
  C:8F19H         LINE#         95
  C:8F1CH         LINE#         96
  C:8F1FH         LINE#         97
  C:8F1FH         LINE#         98
  C:8F22H         LINE#         99
  C:8F24H         LINE#         100
  C:8F27H         LINE#         101
  C:8F2CH         LINE#         102
  C:8F2FH         LINE#         103
  C:8F32H         LINE#         104
  C:8F35H         LINE#         105
  -------         ENDPROC       _USER_IIC_WRITE_REG
  -------         ENDMOD        USER_LIB_IIC

  -------         MODULE        ?C?FPADD
  C:2829H         PUBLIC        ?C?FPADD
  C:2825H         PUBLIC        ?C?FPSUB
  -------         ENDMOD        ?C?FPADD

  -------         MODULE        ?C?FPMUL
BL51 BANKED LINKER/LOCATER V6.22.2.0                                                  07/02/2021  21:25:49  PAGE 114


  C:291AH         PUBLIC        ?C?FPMUL
  -------         ENDMOD        ?C?FPMUL

  -------         MODULE        ?C?FPDIV
  C:2A23H         PUBLIC        ?C?FPDIV
  -------         ENDMOD        ?C?FPDIV

  -------         MODULE        ?C?FPCMP
  C:2AC2H         PUBLIC        ?C?FPCMP
  C:2AC0H         PUBLIC        ?C?FPCMP3
  -------         ENDMOD        ?C?FPCMP

  -------         MODULE        ?C?FCAST
  C:2B43H         PUBLIC        ?C?FCASTC
  C:2B3EH         PUBLIC        ?C?FCASTI
  C:2B39H         PUBLIC        ?C?FCASTL
  -------         ENDMOD        ?C?FCAST

  -------         MODULE        ?C?CASTF
  C:2B77H         PUBLIC        ?C?CASTF
  -------         ENDMOD        ?C?CASTF

  -------         MODULE        PRINTF
  X:00E9H         PUBLIC        ?_PRINTF?BYTE
  X:00E9H         PUBLIC        ?_SPRINTF?BYTE
  C:36A0H         PUBLIC        _PRINTF
  C:369AH         PUBLIC        _SPRINTF
  -------         ENDMOD        PRINTF

  -------         MODULE        ?C?FPROUND
  C:2BF8H         PUBLIC        ?C?FPROUND
  -------         ENDMOD        ?C?FPROUND

  -------         MODULE        ?C?FPCONVERT
  C:2C35H         PUBLIC        ?C?FPCONVERT
  -------         ENDMOD        ?C?FPCONVERT

  -------         MODULE        ?C?FTNPWR
  C:2D6AH         PUBLIC        ?C?FTNPWR
  -------         ENDMOD        ?C?FTNPWR

  -------         MODULE        ?C?COPY
  C:2E7AH         PUBLIC        ?C?COPY
  -------         ENDMOD        ?C?COPY

  -------         MODULE        ?C?CLDPTR
  C:2EA0H         PUBLIC        ?C?CLDPTR
  -------         ENDMOD        ?C?CLDPTR

  -------         MODULE        ?C?CLDOPTR
  C:2EB9H         PUBLIC        ?C?CLDOPTR
  -------         ENDMOD        ?C?CLDOPTR

  -------         MODULE        ?C?CSTPTR
  C:2EE6H         PUBLIC        ?C?CSTPTR
  -------         ENDMOD        ?C?CSTPTR

BL51 BANKED LINKER/LOCATER V6.22.2.0                                                  07/02/2021  21:25:49  PAGE 115


  -------         MODULE        ?C?IMUL
  C:2EF8H         PUBLIC        ?C?IMUL
  -------         ENDMOD        ?C?IMUL

  -------         MODULE        ?C?UIDIV
  C:2F0AH         PUBLIC        ?C?UIDIV
  -------         ENDMOD        ?C?UIDIV

  -------         MODULE        ?C?SIDIV
  C:2F5FH         PUBLIC        ?C?SIDIV
  -------         ENDMOD        ?C?SIDIV

  -------         MODULE        ?C?IILDX
  C:2F95H         PUBLIC        ?C?IILDX
  -------         ENDMOD        ?C?IILDX

  -------         MODULE        ?C?ILDIX
  C:2FABH         PUBLIC        ?C?ILDIX
  -------         ENDMOD        ?C?ILDIX

  -------         MODULE        ?C?LMUL
  C:2FC1H         PUBLIC        ?C?LMUL
  -------         ENDMOD        ?C?LMUL

  -------         MODULE        ?C?ULDIV
  C:304CH         PUBLIC        ?C?ULDIV
  -------         ENDMOD        ?C?ULDIV

  -------         MODULE        ?C?LNEG
  C:30DEH         PUBLIC        ?C?LNEG
  -------         ENDMOD        ?C?LNEG

  -------         MODULE        ?C?ULCMP
  C:30ECH         PUBLIC        ?C?ULCMP
  -------         ENDMOD        ?C?ULCMP

  -------         MODULE        ?C?ULSHR
  C:30FDH         PUBLIC        ?C?ULSHR
  -------         ENDMOD        ?C?ULSHR

  -------         MODULE        ?C?LSTXDATA
  C:3110H         PUBLIC        ?C?LSTXDATA
  -------         ENDMOD        ?C?LSTXDATA

  -------         MODULE        ?C?LSTKXDATA
  C:311CH         PUBLIC        ?C?LSTKXDATA
  -------         ENDMOD        ?C?LSTKXDATA

  -------         MODULE        ?C?OFFXADD
  C:314DH         PUBLIC        ?C?OFFXADD
  -------         ENDMOD        ?C?OFFXADD

  -------         MODULE        ?C?PLDIXDATA
  C:3159H         PUBLIC        ?C?PLDIXDATA
  -------         ENDMOD        ?C?PLDIXDATA

  -------         MODULE        ?C?PSTXDATA
BL51 BANKED LINKER/LOCATER V6.22.2.0                                                  07/02/2021  21:25:49  PAGE 116


  C:3170H         PUBLIC        ?C?PSTXDATA
  -------         ENDMOD        ?C?PSTXDATA

  -------         MODULE        ?C?CCASE
  C:3179H         PUBLIC        ?C?CCASE
  -------         ENDMOD        ?C?CCASE

Program Size: data=79.2 xdata=978 code=37272
LINK/LOCATE RUN COMPLETE.  0 WARNING(S),  0 ERROR(S)
